
Dump of file gdal18.dll

File Type: DLL

  Section contains the following exports for gdal18.dll

    00000000 characteristics
    4E71C43D time date stamp Thu Sep 15 02:24:13 2011
        0.00 version
           1 ordinal base
        3586 number of functions
        3586 number of names

    ordinal hint RVA      name

          1    0 00303410 ??0?$_String_val@DV?$allocator@D@std@@@std@@QEAA@AEBV01@@Z
          2    1 0001C3A0 ??0?$_String_val@DV?$allocator@D@std@@@std@@QEAA@V?$allocator@D@1@@Z
          3    2 00005300 ??0?$basic_string@DU?$char_traits@D@std@@V?$allocator@D@2@@std@@QEAA@$$QEAV01@@Z
          4    3 00005080 ??0?$basic_string@DU?$char_traits@D@std@@V?$allocator@D@2@@std@@QEAA@AEBV01@@Z
          5    4 00004B60 ??0?$basic_string@DU?$char_traits@D@std@@V?$allocator@D@2@@std@@QEAA@AEBV01@_K1@Z
          6    5 00004B60 ??0?$basic_string@DU?$char_traits@D@std@@V?$allocator@D@2@@std@@QEAA@AEBV01@_K1AEBV?$allocator@D@1@@Z
          7    6 00003320 ??0?$basic_string@DU?$char_traits@D@std@@V?$allocator@D@2@@std@@QEAA@AEBV?$allocator@D@1@@Z
          8    7 00004BF0 ??0?$basic_string@DU?$char_traits@D@std@@V?$allocator@D@2@@std@@QEAA@PEBD0@Z
          9    8 00004BF0 ??0?$basic_string@DU?$char_traits@D@std@@V?$allocator@D@2@@std@@QEAA@PEBD0AEBV?$allocator@D@1@@Z
         10    9 00005020 ??0?$basic_string@DU?$char_traits@D@std@@V?$allocator@D@2@@std@@QEAA@PEBD@Z
         11    A 00005020 ??0?$basic_string@DU?$char_traits@D@std@@V?$allocator@D@2@@std@@QEAA@PEBDAEBV?$allocator@D@1@@Z
         12    B 00004B90 ??0?$basic_string@DU?$char_traits@D@std@@V?$allocator@D@2@@std@@QEAA@PEBD_K@Z
         13    C 00004B90 ??0?$basic_string@DU?$char_traits@D@std@@V?$allocator@D@2@@std@@QEAA@PEBD_KAEBV?$allocator@D@1@@Z
         14    D 00004C30 ??0?$basic_string@DU?$char_traits@D@std@@V?$allocator@D@2@@std@@QEAA@V?$_String_const_iterator@DU?$char_traits@D@std@@V?$allocator@D@2@@1@0@Z
         15    E 00003320 ??0?$basic_string@DU?$char_traits@D@std@@V?$allocator@D@2@@std@@QEAA@XZ
         16    F 00004BC0 ??0?$basic_string@DU?$char_traits@D@std@@V?$allocator@D@2@@std@@QEAA@_KD@Z
         17   10 00004BC0 ??0?$basic_string@DU?$char_traits@D@std@@V?$allocator@D@2@@std@@QEAA@_KDAEBV?$allocator@D@1@@Z
         18   11 00099850 ??0AAIGDataset@@QEAA@AEBV0@@Z
         19   12 00097DB0 ??0AAIGDataset@@QEAA@XZ
         20   13 000A5920 ??0AIGDataset@@QEAA@AEBV0@@Z
         21   14 000A3470 ??0AIGDataset@@QEAA@XZ
         22   15 000135B0 ??0CPLMutexHolder@@QEAA@PEAPEAXNPEBDH@Z
         23   16 000136F0 ??0CPLODBCDriverInstaller@@QEAA@XZ
         24   17 00013920 ??0CPLODBCSession@@QEAA@XZ
         25   18 000147A0 ??0CPLODBCStatement@@QEAA@PEAVCPLODBCSession@@@Z
         26   19 00005080 ??0CPLString@@QEAA@AEBV0@@Z
         27   1A 00005080 ??0CPLString@@QEAA@AEBV?$basic_string@DU?$char_traits@D@std@@V?$allocator@D@2@@std@@@Z
         28   1B 00005020 ??0CPLString@@QEAA@PEBD@Z
         29   1C 00003320 ??0CPLString@@QEAA@XZ
         30   1D 0041E5D0 ??0DDFRecordIndex@@QEAA@XZ
         31   1E 0002F4D0 ??0GDALAllValidMaskBand@@QEAA@AEBV0@@Z
         32   1F 0002F020 ??0GDALAllValidMaskBand@@QEAA@PEAVGDALRasterBand@@@Z
         33   20 0002EED0 ??0GDALAsyncReader@@QEAA@AEBV0@@Z
         34   21 000335E0 ??0GDALAsyncReader@@QEAA@XZ
         35   22 0002FAF0 ??0GDALColorTable@@QEAA@AEBV0@@Z
         36   23 0002FEE0 ??0GDALColorTable@@QEAA@W4GDALPaletteInterp@@@Z
         37   24 00030920 ??0GDALDataset@@IEAA@XZ
         38   25 0002F2E0 ??0GDALDataset@@QEAA@AEBV0@@Z
         39   26 0002F240 ??0GDALDefaultOverviews@@QEAA@AEBV0@@Z
         40   27 00033CB0 ??0GDALDefaultOverviews@@QEAA@XZ
         41   28 0002F590 ??0GDALDriver@@QEAA@AEBV0@@Z
         42   29 00035B00 ??0GDALDriver@@QEAA@XZ
         43   2A 0002F660 ??0GDALDriverManager@@QEAA@AEBV0@@Z
         44   2B 000379A0 ??0GDALDriverManager@@QEAA@XZ
         45   2C 00039550 ??0GDALJP2Box@@QEAA@PEAU_iobuf@@@Z
         46   2D 0003A300 ??0GDALJP2Metadata@@QEAA@XZ
         47   2E 0002F1D0 ??0GDALMajorObject@@QEAA@AEBV0@@Z
         48   2F 0003BEE0 ??0GDALMajorObject@@QEAA@XZ
         49   30 0003C060 ??0GDALMultiDomainMetadata@@QEAA@XZ
         50   31 0002F500 ??0GDALNoDataMaskBand@@QEAA@AEBV0@@Z
         51   32 0003D0A0 ??0GDALNoDataMaskBand@@QEAA@PEAVGDALRasterBand@@@Z
         52   33 0002F550 ??0GDALNoDataValuesMaskBand@@QEAA@AEBV0@@Z
         53   34 0003D5F0 ??0GDALNoDataValuesMaskBand@@QEAA@PEAVGDALDataset@@@Z
         54   35 0003E1A0 ??0GDALOpenInfo@@QEAA@PEBDW4GDALAccess@@PEAPEAD@Z
         55   36 0003E420 ??0GDALPamDataset@@IEAA@XZ
         56   37 00038550 ??0GDALPamDataset@@QEAA@AEBV0@@Z
         57   38 000385A0 ??0GDALPamRasterBand@@QEAA@AEBV0@@Z
         58   39 00041F90 ??0GDALPamRasterBand@@QEAA@XZ
         59   3A 00047800 ??0GDALProxyDataset@@QEAA@AEBV0@@Z
         60   3B 00045380 ??0GDALProxyDataset@@QEAA@XZ
         61   3C 00047860 ??0GDALProxyPoolDataset@@QEAA@AEBV0@@Z
         62   3D 000481D0 ??0GDALProxyPoolDataset@@QEAA@PEBDHHW4GDALAccess@@H0PEAN@Z
         63   3E 00047970 ??0GDALProxyPoolRasterBand@@QEAA@AEBV0@@Z
         64   3F 000490B0 ??0GDALProxyPoolRasterBand@@QEAA@PEAVGDALProxyPoolDataset@@HW4GDALDataType@@HH@Z
         65   40 00049180 ??0GDALProxyPoolRasterBand@@QEAA@PEAVGDALProxyPoolDataset@@PEAVGDALRasterBand@@@Z
         66   41 00047830 ??0GDALProxyRasterBand@@QEAA@AEBV0@@Z
         67   42 00045440 ??0GDALProxyRasterBand@@QEAA@XZ
         68   43 000569D0 ??0GDALRasterAttributeTable@@QEAA@AEBV0@@Z
         69   44 00056890 ??0GDALRasterAttributeTable@@QEAA@XZ
         70   45 0002F3B0 ??0GDALRasterBand@@QEAA@AEBV0@@Z
         71   46 000498D0 ??0GDALRasterBand@@QEAA@XZ
         72   47 0002EA80 ??0GDALRasterBlock@@QEAA@AEBV0@@Z
         73   48 0004F210 ??0GDALRasterBlock@@QEAA@PEAVGDALRasterBand@@HH@Z
         74   49 0006DF80 ??0GDALWarpKernel@@QEAA@AEBV0@@Z
         75   4A 00081C30 ??0GDALWarpKernel@@QEAA@XZ
         76   4B 0006E2C0 ??0GDALWarpOperation@@QEAA@AEBV0@@Z
         77   4C 00089AB0 ??0GDALWarpOperation@@QEAA@XZ
         78   4D 0030F980 ??0GMLFeature@@QEAA@PEAVGMLFeatureClass@@@Z
         79   4E 0030EAA0 ??0GMLFeatureClass@@QEAA@PEBD@Z
         80   4F 0034BE90 ??0GMLPropertyDefn@@QEAA@PEBD0@Z
         81   50 0015E490 ??0HFADataset@@QEAA@AEBV0@@Z
         82   51 001568B0 ??0HFADataset@@QEAA@XZ
         83   52 002FD660 ??0IGMLReader@@QEAA@AEBV0@@Z
         84   53 002FD660 ??0IGMLReader@@QEAA@XZ
         85   54 002FE000 ??0IVFKReader@@QEAA@AEBV0@@Z
         86   55 002FE000 ??0IVFKReader@@QEAA@XZ
         87   56 001DB910 ??0KmlSuperOverlayDataset@@QEAA@AEBV0@@Z
         88   57 001D7C20 ??0KmlSuperOverlayDataset@@QEAA@XZ
         89   58 001E7220 ??0MEMDataset@@QEAA@AEBV0@@Z
         90   59 001E6350 ??0MEMDataset@@QEAA@XZ
         91   5A 001E7320 ??0MEMRasterBand@@QEAA@AEBV0@@Z
         92   5B 001E58F0 ??0MEMRasterBand@@QEAA@PEAVGDALDataset@@HPEAEW4GDALDataType@@HHH@Z
         93   5C 00304660 ??0OGRAttrIndex@@IEAA@XZ
         94   5D 002F3B70 ??0OGRAttrIndex@@QEAA@AEBV0@@Z
         95   5E 00038650 ??0OGRCoordinateTransformation@@QEAA@AEBV0@@Z
         96   5F 00038650 ??0OGRCoordinateTransformation@@QEAA@XZ
         97   60 00038910 ??0OGRCurve@@QEAA@AEBV0@@Z
         98   61 00451900 ??0OGRCurve@@QEAA@XZ
         99   62 00077510 ??0OGRDataSource@@QEAA@AEBV0@@Z
        100   63 002F56B0 ??0OGRDataSource@@QEAA@XZ
        101   64 00035790 ??0OGREnvelope@@QEAA@XZ
        102   65 000772A0 ??0OGRFeature@@QEAA@AEBV0@@Z
        103   66 00463720 ??0OGRFeature@@QEAA@PEAVOGRFeatureDefn@@@Z
        104   67 00076E30 ??0OGRFeatureDefn@@QEAA@AEBV0@@Z
        105   68 0046A870 ??0OGRFeatureDefn@@QEAA@PEBD@Z
        106   69 004809E0 ??0OGRFeatureQuery@@QEAA@XZ
        107   6A 004853B0 ??0OGRFieldDefn@@QEAA@PEAV0@@Z
        108   6B 00485360 ??0OGRFieldDefn@@QEAA@PEBDW4OGRFieldType@@@Z
        109   6C 002F5420 ??0OGRGenSQLResultsLayer@@QEAA@AEBV0@@Z
        110   6D 00306C50 ??0OGRGenSQLResultsLayer@@QEAA@PEAVOGRDataSource@@PEAXPEAVOGRGeometry@@PEBD@Z
        111   6E 000386E0 ??0OGRGeometry@@QEAA@AEBV0@@Z
        112   6F 0044E8B0 ??0OGRGeometry@@QEAA@XZ
        113   70 00038D70 ??0OGRGeometryCollection@@QEAA@AEBV0@@Z
        114   71 00456770 ??0OGRGeometryCollection@@QEAA@XZ
        115   72 000773C0 ??0OGRLayer@@QEAA@AEBV0@@Z
        116   73 002F3CC0 ??0OGRLayer@@QEAA@XZ
        117   74 00304610 ??0OGRLayerAttrIndex@@IEAA@XZ
        118   75 002F3C00 ??0OGRLayerAttrIndex@@QEAA@AEBV0@@Z
        119   76 00038A00 ??0OGRLineString@@QEAA@AEBV0@@Z
        120   77 00451A00 ??0OGRLineString@@QEAA@XZ
        121   78 00038AC0 ??0OGRLinearRing@@QEAA@AEBV0@@Z
        122   79 00453EC0 ??0OGRLinearRing@@QEAA@PEAV0@@Z
        123   7A 00453E70 ??0OGRLinearRing@@QEAA@XZ
        124   7B 00038F60 ??0OGRMultiLineString@@QEAA@AEBV0@@Z
        125   7C 00458CC0 ??0OGRMultiLineString@@QEAA@XZ
        126   7D 00038F20 ??0OGRMultiPoint@@QEAA@AEBV0@@Z
        127   7E 00458330 ??0OGRMultiPoint@@QEAA@XZ
        128   7F 00038E50 ??0OGRMultiPolygon@@QEAA@AEBV0@@Z
        129   80 00457A80 ??0OGRMultiPolygon@@QEAA@XZ
        130   81 00038820 ??0OGRPoint@@QEAA@AEBV0@@Z
        131   82 00450F10 ??0OGRPoint@@QEAA@NN@Z
        132   83 00450EA0 ??0OGRPoint@@QEAA@NNN@Z
        133   84 004518C0 ??0OGRPoint@@QEAA@XZ
        134   85 00038CB0 ??0OGRPolygon@@QEAA@AEBV0@@Z
        135   86 004550D0 ??0OGRPolygon@@QEAA@XZ
        136   87 000775F0 ??0OGRSFDriver@@QEAA@AEBV0@@Z
        137   88 000775F0 ??0OGRSFDriver@@QEAA@XZ
        138   89 002F27B0 ??0OGRSFDriverRegistrar@@AEAA@XZ
        139   8A 00442A30 ??0OGRSpatialReference@@QEAA@AEBV0@@Z
        140   8B 00447340 ??0OGRSpatialReference@@QEAA@PEBD@Z
        141   8C 00076690 ??0OGRStyleBrush@@QEAA@AEBV0@@Z
        142   8D 0043C180 ??0OGRStyleBrush@@QEAA@XZ
        143   8E 00076C80 ??0OGRStyleLabel@@QEAA@AEBV0@@Z
        144   8F 0043C460 ??0OGRStyleLabel@@QEAA@XZ
        145   90 0043B240 ??0OGRStyleMgr@@QEAA@PEAVOGRStyleTable@@@Z
        146   91 000764C0 ??0OGRStylePen@@QEAA@AEBV0@@Z
        147   92 0043C010 ??0OGRStylePen@@QEAA@XZ
        148   93 00076920 ??0OGRStyleSymbol@@QEAA@AEBV0@@Z
        149   94 0043C2F0 ??0OGRStyleSymbol@@QEAA@XZ
        150   95 000798E0 ??0OGRStyleTable@@QEAA@AEBV0@@Z
        151   96 0043D860 ??0OGRStyleTable@@QEAA@XZ
        152   97 000762D0 ??0OGRStyleTool@@QEAA@AEBV0@@Z
        153   98 0043B6A0 ??0OGRStyleTool@@QEAA@W4ogr_style_tool_class_id@@@Z
        154   99 00076290 ??0OGRStyleTool@@QEAA@XZ
        155   9A 00038C00 ??0OGRSurface@@QEAA@AEBV0@@Z
        156   9B 00038BC0 ??0OGRSurface@@QEAA@XZ
        157   9C 0044D660 ??0OGR_SRSNode@@QEAA@PEBD@Z
        158   9D 000B2D60 ??0RawDataset@@QEAA@AEBV0@@Z
        159   9E 00264E70 ??0RawDataset@@QEAA@XZ
        160   9F 000B2DC0 ??0RawRasterBand@@QEAA@AEBV0@@Z
        161   A0 00264F60 ??0RawRasterBand@@QEAA@PEAVGDALDataset@@HPEAX_KHHW4GDALDataType@@HHH@Z
        162   A1 002650D0 ??0RawRasterBand@@QEAA@PEAX_KHHW4GDALDataType@@HHHHH@Z
        163   A2 0033ACF0 ??0S57ClassRegistrar@@QEAA@XZ
        164   A3 003C3120 ??0S57Reader@@QEAA@PEBD@Z
        165   A4 003C93B0 ??0S57Writer@@QEAA@XZ
        166   A5 002D0CE0 ??0TILDataset@@QEAA@AEBV0@@Z
        167   A6 002CFE10 ??0TILDataset@@QEAA@XZ
        168   A7 00361060 ??0VFKDataBlock@@QEAA@PEBDPEBVIVFKReader@@@Z
        169   A8 002FE540 ??0VFKFeature@@QEAA@AEBV0@@Z
        170   A9 003FE420 ??0VFKFeature@@QEAA@PEAVVFKDataBlock@@@Z
        171   AA 0031B5B0 ??0VFKProperty@@QEAA@AEBV0@@Z
        172   AB 0031B560 ??0VFKProperty@@QEAA@AEBV?$basic_string@DU?$char_traits@D@std@@V?$allocator@D@2@@std@@@Z
        173   AC 0031B450 ??0VFKProperty@@QEAA@H@Z
        174   AD 0031B480 ??0VFKProperty@@QEAA@N@Z
        175   AE 0031B4F0 ??0VFKProperty@@QEAA@PEBD@Z
        176   AF 0031B420 ??0VFKProperty@@QEAA@XZ
        177   B0 003FDAC0 ??0VFKPropertyDefn@@QEAA@PEBD0@Z
        178   B1 00270DC0 ??0VRTDataset@@QEAA@AEBV0@@Z
        179   B2 002D9530 ??0VRTDataset@@QEAA@HH@Z
        180   B3 00271960 ??0VRTDerivedRasterBand@@QEAA@AEBV0@@Z
        181   B4 002DB3D0 ??0VRTDerivedRasterBand@@QEAA@PEAVGDALDataset@@H@Z
        182   B5 002DB410 ??0VRTDerivedRasterBand@@QEAA@PEAVGDALDataset@@HW4GDALDataType@@HH@Z
        183   B6 002717A0 ??0VRTRasterBand@@QEAA@AEBV0@@Z
        184   B7 002DEB70 ??0VRTRasterBand@@QEAA@XZ
        185   B8 002719B0 ??0VRTRawRasterBand@@QEAA@AEBV0@@Z
        186   B9 002DF8C0 ??0VRTRawRasterBand@@QEAA@PEAVGDALDataset@@HW4GDALDataType@@@Z
        187   BA 00271890 ??0VRTSourcedRasterBand@@QEAA@AEBV0@@Z
        188   BB 002E1980 ??0VRTSourcedRasterBand@@QEAA@PEAVGDALDataset@@H@Z
        189   BC 002E1AE0 ??0VRTSourcedRasterBand@@QEAA@PEAVGDALDataset@@HW4GDALDataType@@HH@Z
        190   BD 002E1A40 ??0VRTSourcedRasterBand@@QEAA@W4GDALDataType@@HH@Z
        191   BE 00270EC0 ??0VRTWarpedDataset@@QEAA@AEBV0@@Z
        192   BF 002E4E50 ??0VRTWarpedDataset@@QEAA@HH@Z
        193   C0 00271930 ??0VRTWarpedRasterBand@@QEAA@AEBV0@@Z
        194   C1 002E5DC0 ??0VRTWarpedRasterBand@@QEAA@PEAVGDALDataset@@HW4GDALDataType@@@Z
        195   C2 0001C790 ??0VSIFileManager@@AEAA@XZ
        196   C3 0001D090 ??0VSIFileManager@@QEAA@AEBV0@@Z
        197   C4 0001C460 ??0VSIFilesystemHandler@@QEAA@AEBV0@@Z
        198   C5 0001C460 ??0VSIFilesystemHandler@@QEAA@XZ
        199   C6 0001C390 ??0VSIVirtualHandle@@QEAA@AEBV0@@Z
        200   C7 0001C390 ??0VSIVirtualHandle@@QEAA@XZ
        201   C8 002EC490 ??0WCSDataset@@QEAA@AEBV0@@Z
        202   C9 002E80A0 ??0WCSDataset@@QEAA@XZ
        203   CA 005313E0 ??1?$_String_val@DV?$allocator@D@std@@@std@@QEAA@XZ
        204   CB 00002B70 ??1?$basic_string@DU?$char_traits@D@std@@V?$allocator@D@2@@std@@QEAA@XZ
        205   CC 00097E80 ??1AAIGDataset@@UEAA@XZ
        206   CD 000A3900 ??1AIGDataset@@UEAA@XZ
        207   CE 000131E0 ??1CPLMutexHolder@@QEAA@XZ
        208   CF 00014410 ??1CPLODBCSession@@QEAA@XZ
        209   D0 00014840 ??1CPLODBCStatement@@QEAA@XZ
        210   D1 00002B70 ??1CPLString@@QEAA@XZ
        211   D2 0041E890 ??1DDFRecordIndex@@QEAA@XZ
        212   D3 0002F0A0 ??1GDALAllValidMaskBand@@UEAA@XZ
        213   D4 00033600 ??1GDALAsyncReader@@UEAA@XZ
        214   D5 0002FF40 ??1GDALColorTable@@QEAA@XZ
        215   D6 00030A30 ??1GDALDataset@@UEAA@XZ
        216   D7 00033CF0 ??1GDALDefaultOverviews@@QEAA@XZ
        217   D8 00035B60 ??1GDALDriver@@UEAA@XZ
        218   D9 000381A0 ??1GDALDriverManager@@UEAA@XZ
        219   DA 00039580 ??1GDALJP2Box@@QEAA@XZ
        220   DB 0003A350 ??1GDALJP2Metadata@@QEAA@XZ
        221   DC 0003BF40 ??1GDALMajorObject@@UEAA@XZ
        222   DD 0003C580 ??1GDALMultiDomainMetadata@@QEAA@XZ
        223   DE 0003D140 ??1GDALNoDataMaskBand@@UEAA@XZ
        224   DF 0003D720 ??1GDALNoDataValuesMaskBand@@UEAA@XZ
        225   E0 0003E160 ??1GDALOpenInfo@@QEAA@XZ
        226   E1 0003FF80 ??1GDALPamDataset@@UEAA@XZ
        227   E2 00043750 ??1GDALPamRasterBand@@UEAA@XZ
        228   E3 000453B0 ??1GDALProxyDataset@@UEAA@XZ
        229   E4 00049010 ??1GDALProxyPoolDataset@@UEAA@XZ
        230   E5 00049250 ??1GDALProxyPoolRasterBand@@UEAA@XZ
        231   E6 00045470 ??1GDALProxyRasterBand@@UEAA@XZ
        232   E7 00056960 ??1GDALRasterAttributeTable@@QEAA@XZ
        233   E8 0004F040 ??1GDALRasterBand@@UEAA@XZ
        234   E9 0004F620 ??1GDALRasterBlock@@UEAA@XZ
        235   EA 00081CF0 ??1GDALWarpKernel@@UEAA@XZ
        236   EB 0008ADA0 ??1GDALWarpOperation@@UEAA@XZ
        237   EC 0030F9B0 ??1GMLFeature@@QEAA@XZ
        238   ED 0030F290 ??1GMLFeatureClass@@QEAA@XZ
        239   EE 0034BEF0 ??1GMLPropertyDefn@@QEAA@XZ
        240   EF 0015B030 ??1HFADataset@@UEAA@XZ
        241   F0 0030FE40 ??1IGMLReader@@UEAA@XZ
        242   F1 0031A570 ??1IVFKReader@@UEAA@XZ
        243   F2 001D7C60 ??1KmlSuperOverlayDataset@@UEAA@XZ
        244   F3 001E63F0 ??1MEMDataset@@UEAA@XZ
        245   F4 001E62A0 ??1MEMRasterBand@@UEAA@XZ
        246   F5 00304680 ??1OGRAttrIndex@@UEAA@XZ
        247   F6 00377A50 ??1OGRCoordinateTransformation@@UEAA@XZ
        248   F7 00451930 ??1OGRCurve@@UEAA@XZ
        249   F8 002F56E0 ??1OGRDataSource@@UEAA@XZ
        250   F9 004666A0 ??1OGRFeature@@UEAA@XZ
        251   FA 0046AD00 ??1OGRFeatureDefn@@UEAA@XZ
        252   FB 004810F0 ??1OGRFeatureQuery@@QEAA@XZ
        253   FC 00485040 ??1OGRFieldDefn@@QEAA@XZ
        254   FD 00306310 ??1OGRGenSQLResultsLayer@@UEAA@XZ
        255   FE 0044E8E0 ??1OGRGeometry@@UEAA@XZ
        256   FF 00457A40 ??1OGRGeometryCollection@@UEAA@XZ
        257  100 002F5350 ??1OGRLayer@@UEAA@XZ
        258  101 00304630 ??1OGRLayerAttrIndex@@UEAA@XZ
        259  102 00451A40 ??1OGRLineString@@UEAA@XZ
        260  103 00453EA0 ??1OGRLinearRing@@UEAA@XZ
        261  104 00458CF0 ??1OGRMultiLineString@@UEAA@XZ
        262  105 00038F10 ??1OGRMultiPoint@@UEAA@XZ
        263  106 00038F10 ??1OGRMultiPolygon@@UEAA@XZ
        264  107 00450F70 ??1OGRPoint@@UEAA@XZ
        265  108 00456630 ??1OGRPolygon@@UEAA@XZ
        266  109 002F71B0 ??1OGRSFDriver@@UEAA@XZ
        267  10A 002F2830 ??1OGRSFDriverRegistrar@@QEAA@XZ
        268  10B 00447490 ??1OGRSpatialReference@@UEAA@XZ
        269  10C 0043C1E0 ??1OGRStyleBrush@@UEAA@XZ
        270  10D 0043C4C0 ??1OGRStyleLabel@@UEAA@XZ
        271  10E 0043B2A0 ??1OGRStyleMgr@@QEAA@XZ
        272  10F 0043C070 ??1OGRStylePen@@UEAA@XZ
        273  110 0043C350 ??1OGRStyleSymbol@@UEAA@XZ
        274  111 0043D8C0 ??1OGRStyleTable@@QEAA@XZ
        275  112 0043B6E0 ??1OGRStyleTool@@UEAA@XZ
        276  113 00038BF0 ??1OGRSurface@@UEAA@XZ
        277  114 0044E330 ??1OGR_SRSNode@@QEAA@XZ
        278  115 00264EA0 ??1RawDataset@@UEAA@XZ
        279  116 00265210 ??1RawRasterBand@@UEAA@XZ
        280  117 0033AD40 ??1S57ClassRegistrar@@QEAA@XZ
        281  118 003C7F60 ??1S57Reader@@QEAA@XZ
        282  119 003CC010 ??1S57Writer@@QEAA@XZ
        283  11A 002CFE60 ??1TILDataset@@UEAA@XZ
        284  11B 00361400 ??1VFKDataBlock@@QEAA@XZ
        285  11C 003FE380 ??1VFKFeature@@QEAA@XZ
        286  11D 0031B4B0 ??1VFKProperty@@QEAA@XZ
        287  11E 003FDBC0 ??1VFKPropertyDefn@@QEAA@XZ
        288  11F 002DA910 ??1VRTDataset@@UEAA@XZ
        289  120 002DB460 ??1VRTDerivedRasterBand@@UEAA@XZ
        290  121 002DEC30 ??1VRTRasterBand@@UEAA@XZ
        291  122 002DFEC0 ??1VRTRawRasterBand@@UEAA@XZ
        292  123 002E1B90 ??1VRTSourcedRasterBand@@UEAA@XZ
        293  124 002E4ED0 ??1VRTWarpedDataset@@UEAA@XZ
        294  125 002E5E70 ??1VRTWarpedRasterBand@@UEAA@XZ
        295  126 0001C6A0 ??1VSIFileManager@@QEAA@XZ
        296  127 0001C430 ??1VSIFilesystemHandler@@UEAA@XZ
        297  128 0001C380 ??1VSIVirtualHandle@@UEAA@XZ
        298  129 002EB6C0 ??1WCSDataset@@UEAA@XZ
        299  12A 00001120 ??4?$_String_val@DV?$allocator@D@std@@@std@@QEAAAEAV01@AEBV01@@Z
        300  12B 00005330 ??4?$basic_string@DU?$char_traits@D@std@@V?$allocator@D@2@@std@@QEAAAEAV01@$$QEAV01@@Z
        301  12C 000050C0 ??4?$basic_string@DU?$char_traits@D@std@@V?$allocator@D@2@@std@@QEAAAEAV01@AEBV01@@Z
        302  12D 00004C80 ??4?$basic_string@DU?$char_traits@D@std@@V?$allocator@D@2@@std@@QEAAAEAV01@D@Z
        303  12E 000038F0 ??4?$basic_string@DU?$char_traits@D@std@@V?$allocator@D@2@@std@@QEAAAEAV01@PEBD@Z
        304  12F 000999B0 ??4AAIGDataset@@QEAAAEAV0@AEBV0@@Z
        305  130 000A59D0 ??4AIGDataset@@QEAAAEAV0@AEBV0@@Z
        306  131 00005C40 ??4CPLMutexHolder@@QEAAAEAV0@AEBV0@@Z
        307  132 00013650 ??4CPLODBCDriverInstaller@@QEAAAEAV0@AEBV0@@Z
        308  133 000136A0 ??4CPLODBCSession@@QEAAAEAV0@AEBV0@@Z
        309  134 000136D0 ??4CPLODBCStatement@@QEAAAEAV0@AEBV0@@Z
        310  135 00005150 ??4CPLString@@QEAAAEAV0@AEBV0@@Z
        311  136 00303410 ??4DDFRecordIndex@@QEAAAEAV0@AEBV0@@Z
        312  137 0002F990 ??4GDALAllValidMaskBand@@QEAAAEAV0@AEBV0@@Z
        313  138 0002EF40 ??4GDALAsyncReader@@QEAAAEAV0@AEBV0@@Z
        314  139 0002FC70 ??4GDALColorTable@@QEAAAEAV0@AEBV0@@Z
        315  13A 0002F800 ??4GDALDataset@@QEAAAEAV0@AEBV0@@Z
        316  13B 0002F770 ??4GDALDefaultOverviews@@QEAAAEAV0@AEBV0@@Z
        317  13C 0002F9F0 ??4GDALDriver@@QEAAAEAV0@AEBV0@@Z
        318  13D 0002FA90 ??4GDALDriverManager@@QEAAAEAV0@AEBV0@@Z
        319  13E 000394E0 ??4GDALJP2Box@@QEAAAEAV0@AEBV0@@Z
        320  13F 00039530 ??4GDALJP2Metadata@@QEAAAEAV0@AEBV0@@Z
        321  140 0002F720 ??4GDALMajorObject@@QEAAAEAV0@AEBV0@@Z
        322  141 0002E910 ??4GDALMultiDomainMetadata@@QEAAAEAV0@AEBV0@@Z
        323  142 0002F9B0 ??4GDALNoDataMaskBand@@QEAAAEAV0@AEBV0@@Z
        324  143 000385E0 ??4GDALNoDataValuesMaskBand@@QEAAAEAV0@AEBV0@@Z
        325  144 0002ED40 ??4GDALOpenInfo@@QEAAAEAV0@AEBV0@@Z
        326  145 000B2EE0 ??4GDALPamDataset@@QEAAAEAV0@AEBV0@@Z
        327  146 000385E0 ??4GDALPamRasterBand@@QEAAAEAV0@AEBV0@@Z
        328  147 00047A10 ??4GDALProxyDataset@@QEAAAEAV0@AEBV0@@Z
        329  148 00047A30 ??4GDALProxyPoolDataset@@QEAAAEAV0@AEBV0@@Z
        330  149 00047B30 ??4GDALProxyPoolRasterBand@@QEAAAEAV0@AEBV0@@Z
        331  14A 0002F990 ??4GDALProxyRasterBand@@QEAAAEAV0@AEBV0@@Z
        332  14B 00045310 ??4GDALRasterAttributeTable@@QEAAAEAV0@AEBV0@@Z
        333  14C 0002F890 ??4GDALRasterBand@@QEAAAEAV0@AEBV0@@Z
        334  14D 0002EAE0 ??4GDALRasterBlock@@QEAAAEAV0@AEBV0@@Z
        335  14E 0006E0E0 ??4GDALWarpKernel@@QEAAAEAV0@AEBV0@@Z
        336  14F 0006E320 ??4GDALWarpOperation@@QEAAAEAV0@AEBV0@@Z
        337  150 00076DB0 ??4GMLFeature@@QEAAAEAV0@AEBV0@@Z
        338  151 00039530 ??4GMLFeatureClass@@QEAAAEAV0@AEBV0@@Z
        339  152 00001120 ??4GMLPropertyDefn@@QEAAAEAV0@AEBV0@@Z
        340  153 0015E5B0 ??4HFADataset@@QEAAAEAV0@AEBV0@@Z
        341  154 0001C3A0 ??4IGMLReader@@QEAAAEAV0@AEBV0@@Z
        342  155 0001C3A0 ??4IVFKReader@@QEAAAEAV0@AEBV0@@Z
        343  156 001DB950 ??4KmlSuperOverlayDataset@@QEAAAEAV0@AEBV0@@Z
        344  157 001E7410 ??4MEMDataset@@QEAAAEAV0@AEBV0@@Z
        345  158 001E74E0 ??4MEMRasterBand@@QEAAAEAV0@AEBV0@@Z
        346  159 0001C3A0 ??4OGRAttrIndex@@QEAAAEAV0@AEBV0@@Z
        347  15A 0001C3A0 ??4OGRCoordinateTransformation@@QEAAAEAV0@AEBV0@@Z
        348  15B 00038700 ??4OGRCurve@@QEAAAEAV0@AEBV0@@Z
        349  15C 00077540 ??4OGRDataSource@@QEAAAEAV0@AEBV0@@Z
        350  15D 00303410 ??4OGREnvelope@@QEAAAEAV0@AEBV0@@Z
        351  15E 000772F0 ??4OGRFeature@@QEAAAEAV0@AEBV0@@Z
        352  15F 00076E70 ??4OGRFeatureDefn@@QEAAAEAV0@AEBV0@@Z
        353  160 0002E910 ??4OGRFeatureQuery@@QEAAAEAV0@AEBV0@@Z
        354  161 00076DB0 ??4OGRFieldDefn@@QEAAAEAV0@AEBV0@@Z
        355  162 002F5530 ??4OGRGenSQLResultsLayer@@QEAAAEAV0@AEBV0@@Z
        356  163 00038700 ??4OGRGeometry@@QEAAAEAV0@AEBV0@@Z
        357  164 00038DB0 ??4OGRGeometryCollection@@QEAAAEAV0@AEBV0@@Z
        358  165 0001C3A0 ??4OGRGeometryFactory@@QEAAAEAV0@AEBV0@@Z
        359  166 00077430 ??4OGRLayer@@QEAAAEAV0@AEBV0@@Z
        360  167 002F3C20 ??4OGRLayerAttrIndex@@QEAAAEAV0@AEBV0@@Z
        361  168 00038B10 ??4OGRLineString@@QEAAAEAV0@AEBV0@@Z
        362  169 00038B10 ??4OGRLinearRing@@QEAAAEAV0@AEBV0@@Z
        363  16A 00038DB0 ??4OGRMultiLineString@@QEAAAEAV0@AEBV0@@Z
        364  16B 00038DB0 ??4OGRMultiPoint@@QEAAAEAV0@AEBV0@@Z
        365  16C 00038DB0 ??4OGRMultiPolygon@@QEAAAEAV0@AEBV0@@Z
        366  16D 00038860 ??4OGRPoint@@QEAAAEAV0@AEBV0@@Z
        367  16E 00038DB0 ??4OGRPolygon@@QEAAAEAV0@AEBV0@@Z
        368  16F 0001C3A0 ??4OGRSFDriver@@QEAAAEAV0@AEBV0@@Z
        369  170 0002ED40 ??4OGRSFDriverRegistrar@@QEAAAEAV0@AEBV0@@Z
        370  171 00442B20 ??4OGRSpatialReference@@QEAAAEAV0@AEBV0@@Z
        371  172 000766E0 ??4OGRStyleBrush@@QEAAAEAV0@AEBV0@@Z
        372  173 000766E0 ??4OGRStyleLabel@@QEAAAEAV0@AEBV0@@Z
        373  174 0002E910 ??4OGRStyleMgr@@QEAAAEAV0@AEBV0@@Z
        374  175 000766E0 ??4OGRStylePen@@QEAAAEAV0@AEBV0@@Z
        375  176 000766E0 ??4OGRStyleSymbol@@QEAAAEAV0@AEBV0@@Z
        376  177 000799D0 ??4OGRStyleTable@@QEAAAEAV0@AEBV0@@Z
        377  178 00076310 ??4OGRStyleTool@@QEAAAEAV0@AEBV0@@Z
        378  179 00038700 ??4OGRSurface@@QEAAAEAV0@AEBV0@@Z
        379  17A 00303410 ??4OGR_SRSNode@@QEAAAEAV0@AEBV0@@Z
        380  17B 000B2EE0 ??4RawDataset@@QEAAAEAV0@AEBV0@@Z
        381  17C 000B2F20 ??4RawRasterBand@@QEAAAEAV0@AEBV0@@Z
        382  17D 000136D0 ??4S57ClassRegistrar@@QEAAAEAV0@AEBV0@@Z
        383  17E 00303470 ??4S57Reader@@QEAAAEAV0@AEBV0@@Z
        384  17F 00303410 ??4S57Writer@@QEAAAEAV0@AEBV0@@Z
        385  180 002D0D70 ??4TILDataset@@QEAAAEAV0@AEBV0@@Z
        386  181 000394E0 ??4VFKDataBlock@@QEAAAEAV0@AEBV0@@Z
        387  182 002FE750 ??4VFKFeature@@QEAAAEAV0@AEBV0@@Z
        388  183 0031B610 ??4VFKProperty@@QEAAAEAV0@AEBV0@@Z
        389  184 00303410 ??4VFKPropertyDefn@@QEAAAEAV0@AEBV0@@Z
        390  185 00270F30 ??4VRTDataset@@QEAAAEAV0@AEBV0@@Z
        391  186 00271640 ??4VRTDerivedRasterBand@@QEAAAEAV0@AEBV0@@Z
        392  187 002714C0 ??4VRTRasterBand@@QEAAAEAV0@AEBV0@@Z
        393  188 00271680 ??4VRTRawRasterBand@@QEAAAEAV0@AEBV0@@Z
        394  189 002715A0 ??4VRTSourcedRasterBand@@QEAAAEAV0@AEBV0@@Z
        395  18A 00271020 ??4VRTWarpedDataset@@QEAAAEAV0@AEBV0@@Z
        396  18B 00271620 ??4VRTWarpedRasterBand@@QEAAAEAV0@AEBV0@@Z
        397  18C 0001D0C0 ??4VSIFileManager@@QEAAAEAV0@AEBV0@@Z
        398  18D 0001C3A0 ??4VSIFilesystemHandler@@QEAAAEAV0@AEBV0@@Z
        399  18E 0001C3A0 ??4VSIVirtualHandle@@QEAAAEAV0@AEBV0@@Z
        400  18F 002EC620 ??4WCSDataset@@QEAAAEAV0@AEBV0@@Z
        401  190 000021F0 ??A?$basic_string@DU?$char_traits@D@std@@V?$allocator@D@2@@std@@QEAAAEAD_K@Z
        402  191 000021F0 ??A?$basic_string@DU?$char_traits@D@std@@V?$allocator@D@2@@std@@QEBAAEBD_K@Z
        403  192 00002B50 ??ACPLString@@QEAAAEADH@Z
        404  193 000021F0 ??ACPLString@@QEAAAEAD_K@Z
        405  194 00002B50 ??ACPLString@@QEBAAEBDH@Z
        406  195 000021F0 ??ACPLString@@QEBAAEBD_K@Z
        407  196 00002210 ??BCPLString@@QEBAPEBDXZ
        408  197 00004D30 ??Y?$basic_string@DU?$char_traits@D@std@@V?$allocator@D@2@@std@@QEAAAEAV01@AEBV01@@Z
        409  198 00004D20 ??Y?$basic_string@DU?$char_traits@D@std@@V?$allocator@D@2@@std@@QEAAAEAV01@D@Z
        410  199 00004CF0 ??Y?$basic_string@DU?$char_traits@D@std@@V?$allocator@D@2@@std@@QEAAAEAV01@PEBD@Z
        411  19A 005A2E48 ??_7AAIGDataset@@6B@
        412  19B 005BD098 ??_7AIGDataset@@6B@
        413  19C 00590628 ??_7GDALAllValidMaskBand@@6B@
        414  19D 005905D8 ??_7GDALAsyncReader@@6B@
        415  19E 00590838 ??_7GDALDataset@@6B@
        416  19F 00590D98 ??_7GDALDriver@@6B@
        417  1A0 00590DD8 ??_7GDALDriverManager@@6B@
        418  1A1 005907C8 ??_7GDALMajorObject@@6B@
        419  1A2 00590A98 ??_7GDALNoDataMaskBand@@6B@
        420  1A3 00590C18 ??_7GDALNoDataValuesMaskBand@@6B@
        421  1A4 005935D8 ??_7GDALPamDataset@@6B@
        422  1A5 005936E8 ??_7GDALPamRasterBand@@6B@
        423  1A6 00596E48 ??_7GDALProxyDataset@@6B@
        424  1A7 005970C8 ??_7GDALProxyPoolDataset@@6B@
        425  1A8 005971B8 ??_7GDALProxyPoolRasterBand@@6B@
        426  1A9 00596F38 ??_7GDALProxyRasterBand@@6B@
        427  1AA 00590918 ??_7GDALRasterBand@@6B@
        428  1AB 005905C8 ??_7GDALRasterBlock@@6B@
        429  1AC 0059DAF0 ??_7GDALWarpKernel@@6B@
        430  1AD 0059DB00 ??_7GDALWarpOperation@@6B@
        431  1AE 00632EB8 ??_7HFADataset@@6B@
        432  1AF 006A9558 ??_7IGMLReader@@6B@
        433  1B0 006A9958 ??_7IVFKReader@@6B@
        434  1B1 0064D5C8 ??_7KmlSuperOverlayDataset@@6B@
        435  1B2 00650AC8 ??_7MEMDataset@@6B@
        436  1B3 00650938 ??_7MEMRasterBand@@6B@
        437  1B4 006A7528 ??_7OGRAttrIndex@@6B@
        438  1B5 005939D8 ??_7OGRCoordinateTransformation@@6B@
        439  1B6 00593D28 ??_7OGRCurve@@6B@
        440  1B7 0059ED28 ??_7OGRDataSource@@6B@
        441  1B8 0059EBD8 ??_7OGRFeature@@6B@
        442  1B9 0059EBC0 ??_7OGRFeatureDefn@@6B@
        443  1BA 006A8098 ??_7OGRGenSQLResultsLayer@@6B@
        444  1BB 00593A08 ??_7OGRGeometry@@6B@
        445  1BC 005945D8 ??_7OGRGeometryCollection@@6B@
        446  1BD 0059EC28 ??_7OGRLayer@@6B@
        447  1BE 006A7568 ??_7OGRLayerAttrIndex@@6B@
        448  1BF 00593EE8 ??_7OGRLineString@@6B@
        449  1C0 005940A8 ??_7OGRLinearRing@@6B@
        450  1C1 00594B18 ??_7OGRMultiLineString@@6B@
        451  1C2 00594958 ??_7OGRMultiPoint@@6B@
        452  1C3 00594798 ??_7OGRMultiPolygon@@6B@
        453  1C4 00593B98 ??_7OGRPoint@@6B@
        454  1C5 00594438 ??_7OGRPolygon@@6B@
        455  1C6 0059EDA8 ??_7OGRSFDriver@@6B@
        456  1C7 006FD628 ??_7OGRSpatialReference@@6B@
        457  1C8 0059EB60 ??_7OGRStyleBrush@@6B@
        458  1C9 0059EBA0 ??_7OGRStyleLabel@@6B@
        459  1CA 0059EB40 ??_7OGRStylePen@@6B@
        460  1CB 0059EB80 ??_7OGRStyleSymbol@@6B@
        461  1CC 0059EB20 ??_7OGRStyleTool@@6B@
        462  1CD 00594298 ??_7OGRSurface@@6B@
        463  1CE 005C1718 ??_7RawDataset@@6B@
        464  1CF 005C1828 ??_7RawRasterBand@@6B@
        465  1D0 0069DFD8 ??_7TILDataset@@6B@
        466  1D1 00679FB8 ??_7VRTDataset@@6B@
        467  1D2 0067A768 ??_7VRTDerivedRasterBand@@6B@
        468  1D3 0067A288 ??_7VRTRasterBand@@6B@
        469  1D4 0067A8F8 ??_7VRTRawRasterBand@@6B@
        470  1D5 0067A448 ??_7VRTSourcedRasterBand@@6B@
        471  1D6 0067A0A8 ??_7VRTWarpedDataset@@6B@
        472  1D7 0067A5D8 ??_7VRTWarpedRasterBand@@6B@
        473  1D8 0058D2A8 ??_7VSIFilesystemHandler@@6B@
        474  1D9 0058D258 ??_7VSIVirtualHandle@@6B@
        475  1DA 006A5058 ??_7WCSDataset@@6B@
        476  1DB 005313E0 ??_F?$_String_val@DV?$allocator@D@std@@@std@@QEAAXXZ
        477  1DC 0002EBB0 ??_FGDALColorTable@@QEAAXXZ
        478  1DD 0003A2D0 ??_FGDALJP2Box@@QEAAXXZ
        479  1DE 002FD5F0 ??_FGMLFeatureClass@@QEAAXXZ
        480  1DF 00076EB0 ??_FOGRFeatureDefn@@QEAAXXZ
        481  1E0 00038640 ??_FOGRSpatialReference@@QEAAXXZ
        482  1E1 00076280 ??_FOGRStyleMgr@@QEAAXXZ
        483  1E2 00038630 ??_FOGR_SRSNode@@QEAAXXZ
        484  1E3 00265960 ?AccessBlock@RawRasterBand@@IEAA?AW4CPLErr@@_KHPEAX@Z
        485  1E4 002652F0 ?AccessLine@RawRasterBand@@QEAA?AW4CPLErr@@H@Z
        486  1E5 00030D70 ?AddBand@GDALDataset@@UEAA?AW4CPLErr@@W4GDALDataType@@PEAPEAD@Z
        487  1E6 001E5FE0 ?AddBand@MEMDataset@@UEAA?AW4CPLErr@@W4GDALDataType@@PEAPEAD@Z
        488  1E7 002DA110 ?AddBand@VRTDataset@@UEAA?AW4CPLErr@@W4GDALDataType@@PEAPEAD@Z
        489  1E8 002E6200 ?AddBand@VRTWarpedDataset@@UEAA?AW4CPLErr@@W4GDALDataType@@PEAPEAD@Z
        490  1E9 0044E360 ?AddChild@OGR_SRSNode@@QEAAXPEAV1@@Z
        491  1EA 002E1060 ?AddComplexSource@VRTSourcedRasterBand@@QEAA?AW4CPLErr@@PEAVGDALRasterBand@@HHHHHHHHNNNH@Z
        492  1EB 00361660 ?AddFeature@VFKDataBlock@@QEAAHPEBD@Z
        493  1EC 003C5390 ?AddFeatureDefn@S57Reader@@QEAAXPEAVOGRFeatureDefn@@@Z
        494  1ED 0046AA90 ?AddFieldDefn@OGRFeatureDefn@@QEAAXPEAVOGRFieldDefn@@@Z
        495  1EE 00305EE0 ?AddFieldDefnToSet@OGRGenSQLResultsLayer@@AEAAXHHPEAU_CPLHashSet@@@Z
        496  1EF 002E1300 ?AddFuncSource@VRTSourcedRasterBand@@QEAA?AW4CPLErr@@P6A?AW42@PEAXHHHH0@Z0N@Z
        497  1F0 0030FDB0 ?AddGeometry@GMLFeature@@QEAAXPEAD@Z
        498  1F1 0002EA40 ?AddLock@GDALRasterBlock@@QEAAXXZ
        499  1F2 002E0E00 ?AddMaskBandSource@VRTSourcedRasterBand@@QEAA?AW4CPLErr@@PEAVGDALRasterBand@@HHHHHHHH@Z
        500  1F3 0030FDF0 ?AddOBProperty@GMLFeature@@QEAAXPEBD0@Z
        501  1F4 0043D6D0 ?AddPart@OGRStyleMgr@@QEAAHPEAVOGRStyleTool@@@Z
        502  1F5 0043D5E0 ?AddPart@OGRStyleMgr@@QEAAHPEBD@Z
        503  1F6 002DB5B0 ?AddPixelFunction@VRTDerivedRasterBand@@SA?AW4CPLErr@@PEBDP6A?AW42@PEAPEAXHPEAXHHW4GDALDataType@@3HH@Z@Z
        504  1F7 0030F330 ?AddProperty@GMLFeatureClass@@QEAAHPEAVGMLPropertyDefn@@@Z
        505  1F8 003610E0 ?AddProperty@VFKDataBlock@@AEAAHPEBD0@Z
        506  1F9 0041E620 ?AddRecord@DDFRecordIndex@@QEAAXHPEAVDDFRecord@@@Z
        507  1FA 002E0BC0 ?AddSimpleSource@VRTSourcedRasterBand@@QEAA?AW4CPLErr@@PEAVGDALRasterBand@@HHHHHHHHPEBDN@Z
        508  1FB 002E08C0 ?AddSource@VRTSourcedRasterBand@@QEAA?AW4CPLErr@@PEAVVRTSource@@@Z
        509  1FC 000494A0 ?AddSrcBandDescription@GDALProxyPoolDataset@@QEAAXW4GDALDataType@@HH@Z
        510  1FD 00049540 ?AddSrcMaskBandDescription@GDALProxyPoolRasterBand@@QEAAXW4GDALDataType@@HH@Z
        511  1FE 0043E330 ?AddStyle@OGRStyleMgr@@QEAAHPEBD0@Z
        512  1FF 0043D910 ?AddStyle@OGRStyleTable@@QEAAHPEBD0@Z
        513  200 00076C10 ?AdjustmentHor@OGRStyleLabel@@QEAAPEBDAEAH@Z
        514  201 00076C30 ?AdjustmentVert@OGRStyleLabel@@QEAAPEBDAEAH@Z
        515  202 0004C820 ?AdoptBlock@GDALRasterBand@@IEAA?AW4CPLErr@@HHPEAVGDALRasterBlock@@@Z
        516  203 00032370 ?AdviseRead@GDALDataset@@UEAA?AW4CPLErr@@HHHHHHW4GDALDataType@@HPEAHPEAPEAD@Z
        517  204 00045F40 ?AdviseRead@GDALProxyDataset@@UEAA?AW4CPLErr@@HHHHHHW4GDALDataType@@HPEAHPEAPEAD@Z
        518  205 000472A0 ?AdviseRead@GDALProxyRasterBand@@UEAA?AW4CPLErr@@HHHHHHW4GDALDataType@@PEAPEAD@Z
        519  206 0004B5E0 ?AdviseRead@GDALRasterBand@@UEAA?AW4CPLErr@@HHHHHHW4GDALDataType@@PEAPEAD@Z
        520  207 00054F80 ?AnalyseColumns@GDALRasterAttributeTable@@AEAAXXZ
        521  208 0034BF70 ?AnalysePropertyValue@GMLPropertyDefn@@QEAAXPEBUGMLProperty@@@Z
        522  209 00076AD0 ?Anchor@OGRStyleLabel@@QEAAHAEAH@Z
        523  20A 000765F0 ?Angle@OGRStyleBrush@@QEAANAEAH@Z
        524  20B 00076A50 ?Angle@OGRStyleLabel@@QEAANAEAH@Z
        525  20C 000767C0 ?Angle@OGRStyleSymbol@@QEAANAEAH@Z
        526  20D 00013F50 ?Append@CPLODBCStatement@@QEAAXH@Z
        527  20E 00014030 ?Append@CPLODBCStatement@@QEAAXN@Z
        528  20F 00013DA0 ?Append@CPLODBCStatement@@QEAAXPEBD@Z
        529  210 00013E40 ?AppendEscaped@CPLODBCStatement@@QEAAXPEBD@Z
        530  211 00361C20 ?AppendLineToRing@VFKDataBlock@@AEAA_NPEAV?$vector@PEAV?$vector@VOGRPoint@@V?$allocator@VOGRPoint@@@std@@@std@@V?$allocator@PEAV?$vector@VOGRPoint@@V?$allocator@VOGRPoint@@@std@@@std@@@2@@std@@PEBVOGRLineString@@_N@Z
        531  212 00014110 ?Appendf@CPLODBCStatement@@QEAAHPEBDZZ
        532  213 003C3740 ?ApplyObjectClassAttributes@S57Reader@@AEAAXPEAVDDFRecord@@PEAVOGRFeature@@@Z
        533  214 003C5400 ?ApplyRecordUpdate@S57Reader@@AEAAHPEAVDDFRecord@@0@Z
        534  215 003C5CA0 ?ApplyUpdates@S57Reader@@QEAAHPEAVDDFModule@@@Z
        535  216 003C7B50 ?AssembleAreaGeometry@S57Reader@@AEAAXPEAVDDFRecord@@PEAVOGRFeature@@@Z
        536  217 003C7FF0 ?AssembleFeature@S57Reader@@AEAAPEAVOGRFeature@@PEAVDDFRecord@@PEAVOGRFeatureDefn@@@Z
        537  218 003C73D0 ?AssembleLineGeometry@S57Reader@@AEAAXPEAVDDFRecord@@PEAVOGRFeature@@@Z
        538  219 003C6F60 ?AssemblePointGeometry@S57Reader@@AEAAXPEAVDDFRecord@@PEAVOGRFeature@@@Z
        539  21A 003C70F0 ?AssembleSoundingGeometry@S57Reader@@AEAAXPEAVDDFRecord@@PEAVOGRFeature@@@Z
        540  21B 0046CDA0 ?AutoIdentifyEPSG@OGRSpatialReference@@QEAAHXZ
        541  21C 00037DC0 ?AutoLoadDrivers@GDALDriverManager@@QEAAXXZ
        542  21D 002F37A0 ?AutoLoadDrivers@OGRSFDriverRegistrar@@QEAAXXZ
        543  21E 00037CB0 ?AutoSkipDrivers@GDALDriverManager@@QEAAXXZ
        544  21F 000765B0 ?BackColor@OGRStyleBrush@@QEAAPEBDAEAH@Z
        545  220 00076A90 ?BackColor@OGRStyleLabel@@QEAAPEBDAEAH@Z
        546  221 00032D40 ?BeginAsyncReader@GDALDataset@@UEAAPEAVGDALAsyncReader@@HHHHPEAXHHW4GDALDataType@@HPEAHHHHPEAPEAD@Z
        547  222 000144C0 ?BeginTransaction@CPLODBCSession@@QEAAHXZ
        548  223 00032F70 ?BlockBasedFlushCache@GDALDataset@@IEAAXXZ
        549  224 000662E0 ?BlockBasedRasterIO@GDALDataset@@IEAA?AW4CPLErr@@W4GDALRWFlag@@HHHHPEAXHHW4GDALDataType@@HPEAHHHH@Z
        550  225 00076B50 ?Bold@OGRStyleLabel@@QEAAHAEAH@Z
        551  226 0044FFA0 ?Boundary@OGRGeometry@@UEBAPEAV1@XZ
        552  227 004500C0 ?Buffer@OGRGeometry@@UEBAPEAV1@NH@Z
        553  228 00031790 ?BuildOverviews@GDALDataset@@QEAA?AW4CPLErr@@PEBDHPEAHH1P6AHN0PEAX@Z2@Z
        554  229 00034630 ?BuildOverviews@GDALDefaultOverviews@@QEAA?AW4CPLErr@@PEBD0HPEAHH1P6AHN0PEAX@Z2@Z
        555  22A 00047200 ?BuildOverviews@GDALProxyRasterBand@@UEAA?AW4CPLErr@@PEBDHPEAHP6AHN0PEAX@Z2@Z
        556  22B 0004AD70 ?BuildOverviews@GDALRasterBand@@UEAA?AW4CPLErr@@PEBDHPEAHP6AHN0PEAX@Z2@Z
        557  22C 00035500 ?BuildOverviewsSubDataset@GDALDefaultOverviews@@QEAA?AW4CPLErr@@PEBD0HPEAHH1P6AHN0PEAX@Z2@Z
        558  22D 0003EB80 ?BuildPamFilename@GDALPamDataset@@MEAAPEBDXZ
        559  22E 00116070 ?CPLHTTPCleanupRequest@@YAXPEAUCPLHTTPRequest@@@Z
        560  22F 00116130 ?CPLHTTPFetchMulti@@YA?AW4CPLErr@@PEAUCPLHTTPRequest@@HPEBQEBD@Z
        561  230 001165D0 ?CPLHTTPInitializeRequest@@YAXPEAUCPLHTTPRequest@@PEBDPEBQEBD@Z
        562  231 0001BF00 ?CPLUnixTimeToYMDHMS@@YAPEAUtm@@_JPEAU1@@Z
        563  232 0001C1E0 ?CPLYMDHMSToUnixTime@@YA_JPEBUtm@@@Z
        564  233 00076460 ?Cap@OGRStylePen@@QEAAPEBDAEAH@Z
        565  234 00450C00 ?Centroid@OGRGeometry@@UEBAHPEAVOGRPoint@@@Z
        566  235 0008C5A0 ?ChunkAndWarpImage@GDALWarpOperation@@QEAA?AW4CPLErr@@HHHH@Z
        567  236 0008C870 ?ChunkAndWarpMulti@GDALWarpOperation@@QEAA?AW4CPLErr@@HHHH@Z
        568  237 000341F0 ?CleanOverviews@GDALDefaultOverviews@@QEAA?AW4CPLErr@@XZ
        569  238 00014220 ?Clear@CPLODBCStatement@@QEAAXXZ
        570  239 00005070 ?Clear@CPLString@@QEAAXXZ
        571  23A 0041E5F0 ?Clear@DDFRecordIndex@@QEAAXXZ
        572  23B 0003C080 ?Clear@GDALMultiDomainMetadata@@QEAAXXZ
        573  23C 00442AC0 ?Clear@OGRSpatialReference@@QEAAXXZ
        574  23D 0043B380 ?Clear@OGRStyleTable@@QEAAXXZ
        575  23E 0044D690 ?ClearChildren@OGR_SRSNode@@AEAAXXZ
        576  23F 00013D00 ?ClearColumnData@CPLODBCStatement@@QEAAXXZ
        577  240 00305750 ?ClearFilters@OGRGenSQLResultsLayer@@AEAAXXZ
        578  241 003C3230 ?ClearPendingMultiPoint@S57Reader@@AEAAXXZ
        579  242 002DFBD0 ?ClearRawLink@VRTRawRasterBand@@QEAAXXZ
        580  243 00014420 ?ClearTransaction@CPLODBCSession@@QEAAHXZ
        581  244 0002FF80 ?Clone@GDALColorTable@@QEBAPEAV1@XZ
        582  245 000570A0 ?Clone@GDALRasterAttributeTable@@QEBAPEAV1@XZ
        583  246 00466840 ?Clone@OGRFeature@@QEAAPEAV1@XZ
        584  247 0046ADB0 ?Clone@OGRFeatureDefn@@QEAAPEAV1@XZ
        585  248 004474D0 ?Clone@OGRSpatialReference@@QEBAPEAV1@XZ
        586  249 0043DA50 ?Clone@OGRStyleTable@@QEAAPEAV1@XZ
        587  24A 0044E410 ?Clone@OGR_SRSNode@@QEBAPEAV1@XZ
        588  24B 0044B660 ?CloneGeogCS@OGRSpatialReference@@QEBAPEAV1@XZ
        589  24C 0003F750 ?CloneInfo@GDALPamDataset@@UEAA?AW4CPLErr@@PEAVGDALDataset@@H@Z
        590  24D 000433F0 ?CloneInfo@GDALPamRasterBand@@UEAA?AW4CPLErr@@PEAVGDALRasterBand@@H@Z
        591  24E 003C6150 ?Close@S57Reader@@QEAAXXZ
        592  24F 003CA150 ?Close@S57Writer@@QEAAHXZ
        593  250 00013950 ?CloseSession@CPLODBCSession@@QEAAHXZ
        594  251 0008AE20 ?CollectChunkList@GDALWarpOperation@@AEAA?AW4CPLErr@@HHHH@Z
        595  252 003C9010 ?CollectClassList@S57Reader@@QEAAHPEAHH@Z
        596  253 0003A3B0 ?CollectGMLData@GDALJP2Metadata@@AEAAXPEAVGDALJP2Box@@@Z
        597  254 00014870 ?CollectResultsInfo@CPLODBCStatement@@QEAAHXZ
        598  255 000763C0 ?Color@OGRStylePen@@QEAAPEBDAEAH@Z
        599  256 000767E0 ?Color@OGRStyleSymbol@@QEAAPEBDAEAH@Z
        600  257 00014560 ?CommitTransaction@CPLODBCSession@@QEAAHXZ
        601  258 002F4620 ?CommitTransaction@OGRLayer@@UEAAHXZ
        602  259 00305CD0 ?Compare@OGRGenSQLResultsLayer@@AEAAHPEATOGRField@@0@Z
        603  25A 00480A00 ?Compile@OGRFeatureQuery@@QEAAHPEAVOGRFeatureDefn@@PEBD@Z
        604  25B 00046FC0 ?ComputeRasterMinMax@GDALProxyRasterBand@@UEAA?AW4CPLErr@@HPEAN@Z
        605  25C 0004E6D0 ?ComputeRasterMinMax@GDALRasterBand@@UEAA?AW4CPLErr@@HPEAN@Z
        606  25D 0008A690 ?ComputeSourceWindow@GDALWarpOperation@@AEAA?AW4CPLErr@@HHHHPEAH000@Z
        607  25E 00046E50 ?ComputeStatistics@GDALProxyRasterBand@@UEAA?AW4CPLErr@@HPEAN000P6AHNPEBDPEAX@Z2@Z
        608  25F 0004DB90 ?ComputeStatistics@GDALRasterBand@@UEAA?AW4CPLErr@@HPEAN000P6AHNPEBDPEAX@Z2@Z
        609  260 0043BBF0 ?ComputeWithUnit@OGRStyleTool@@QEAAHHW4ogr_style_tool_units_id@@@Z
        610  261 0043BB00 ?ComputeWithUnit@OGRStyleTool@@QEAANNW4ogr_style_tool_units_id@@@Z
        611  262 00035990 ?Contains@OGREnvelope@@QEBAHAEBV1@@Z
        612  263 00450A00 ?Contains@OGRGeometry@@UEBAHPEBV1@@Z
        613  264 0044FEE0 ?ConvexHull@OGRGeometry@@UEBAPEAV1@XZ
        614  265 002DD930 ?CopyCommonInfoFrom@VRTRasterBand@@QEAA?AW4CPLErr@@PEAVGDALRasterBand@@@Z
        615  266 002F7450 ?CopyDataSource@OGRSFDriver@@UEAAPEAVOGRDataSource@@PEAV2@PEBDPEAPEAD@Z
        616  267 000361F0 ?CopyFiles@GDALDriver@@QEAA?AW4CPLErr@@PEBD0@Z
        617  268 0015DEE0 ?CopyFiles@HFADataset@@SA?AW4CPLErr@@PEBD0@Z
        618  269 004444A0 ?CopyGeogCSFrom@OGRSpatialReference@@QEAAHPEBV1@@Z
        619  26A 002F5AA0 ?CopyLayer@OGRDataSource@@UEAAPEAVOGRLayer@@PEAV2@PEBDPEAPEAD@Z
        620  26B 00036D30 ?Create@GDALDriver@@QEAAPEAVGDALDataset@@PEBDHHHW4GDALDataType@@PEAPEAD@Z
        621  26C 001587A0 ?Create@HFADataset@@SAPEAVGDALDataset@@PEBDHHHW4GDALDataType@@PEAPEAD@Z
        622  26D 001E6920 ?Create@MEMDataset@@SAPEAVGDALDataset@@PEBDHHHW4GDALDataType@@PEAPEAD@Z
        623  26E 002DA5F0 ?Create@VRTDataset@@SAPEAVGDALDataset@@PEBDHHHW4GDALDataType@@PEAPEAD@Z
        624  26F 00039990 ?CreateAsocBox@GDALJP2Box@@SAPEAV1@HPEAPEAV1@@Z
        625  270 00030200 ?CreateColorRamp@GDALColorTable@@QEAAHHPEBUGDALColorEntry@@H0@Z
        626  271 00056AB0 ?CreateColumn@GDALRasterAttributeTable@@QEAA?AW4CPLErr@@PEBDW4GDALRATFieldType@@W4GDALRATFieldUsage@@@Z
        627  272 00037630 ?CreateCopy@GDALDriver@@QEAAPEAVGDALDataset@@PEBDPEAV2@HPEAPEADP6AHN0PEAX@Z3@Z
        628  273 0015B970 ?CreateCopy@HFADataset@@SAPEAVGDALDataset@@PEBDPEAV2@HPEAPEADP6AHN0PEAX@Z3@Z
        629  274 001D9980 ?CreateCopy@KmlSuperOverlayDataset@@SAPEAVGDALDataset@@PEBDPEAV2@HPEAPEADP6AHN0PEAX@Z3@Z
        630  275 002F71D0 ?CreateDataSource@OGRSFDriver@@UEAAPEAVOGRDataSource@@PEBDPEAPEAD@Z
        631  276 00463850 ?CreateFeature@OGRFeature@@SAPEAV1@PEAVOGRFeatureDefn@@@Z
        632  277 002F4460 ?CreateFeature@OGRLayer@@UEAAHPEAVOGRFeature@@@Z
        633  278 0046AC70 ?CreateFeatureDefn@OGRFeatureDefn@@SAPEAV1@PEBD@Z
        634  279 002F4500 ?CreateField@OGRLayer@@UEAAHPEAVOGRFieldDefn@@H@Z
        635  27A 0003B5C0 ?CreateGMLJP2@GDALJP2Metadata@@QEAAPEAVGDALJP2Box@@HH@Z
        636  27B 0003AF80 ?CreateJP2GeoTIFF@GDALJP2Metadata@@QEAAPEAVGDALJP2Box@@XZ
        637  27C 0008A4F0 ?CreateKernelMask@GDALWarpOperation@@AEAA?AW4CPLErr@@PEAVGDALWarpKernel@@HPEBD@Z
        638  27D 00039BE0 ?CreateLabelledXMLAssoc@GDALJP2Box@@SAPEAV1@PEBD0@Z
        639  27E 002F59F0 ?CreateLayer@OGRDataSource@@UEAAPEAVOGRLayer@@PEBDPEAVOGRSpatialReference@@W4OGRwkbGeometryType@@PEAPEAD@Z
        640  27F 00039B50 ?CreateLblBox@GDALJP2Box@@SAPEAV1@PEBD@Z
        641  280 000325B0 ?CreateMaskBand@GDALDataset@@UEAA?AW4CPLErr@@H@Z
        642  281 00035000 ?CreateMaskBand@GDALDefaultOverviews@@QEAA?AW4CPLErr@@HH@Z
        643  282 00046020 ?CreateMaskBand@GDALProxyDataset@@UEAA?AW4CPLErr@@H@Z
        644  283 00047770 ?CreateMaskBand@GDALProxyRasterBand@@UEAA?AW4CPLErr@@H@Z
        645  284 0004C1B0 ?CreateMaskBand@GDALRasterBand@@UEAA?AW4CPLErr@@H@Z
        646  285 002DB330 ?CreateMaskBand@VRTDataset@@UEAA?AW4CPLErr@@H@Z
        647  286 002DEAB0 ?CreateMaskBand@VRTRasterBand@@UEAA?AW4CPLErr@@H@Z
        648  287 00306830 ?CreateOrderByIndex@OGRGenSQLResultsLayer@@AEAAXXZ
        649  288 003CA1A0 ?CreateS57File@S57Writer@@QEAAHPEBD@Z
        650  289 0043C600 ?CreateStyleToolFromStyleString@OGRStyleMgr@@QEAAPEAVOGRStyleTool@@PEBD@Z
        651  28A 000398B0 ?CreateUUIDBox@GDALJP2Box@@SAPEAV1@PEBEHPEAE@Z
        652  28B 00450860 ?Crosses@OGRGeometry@@UEBAHPEBV1@@Z
        653  28C 00036090 ?DefaultCopyFiles@GDALDriver@@QEAA?AW4CPLErr@@PEBD0@Z
        654  28D 00035BF0 ?DefaultCopyMasks@GDALDriver@@SA?AW4CPLErr@@PEAVGDALDataset@@0H@Z
        655  28E 00036FA0 ?DefaultCreateCopy@GDALDriver@@QEAAPEAVGDALDataset@@PEBDPEAV2@HPEAPEADP6AHN0PEAX@Z3@Z
        656  28F 00035F00 ?DefaultRename@GDALDriver@@QEAA?AW4CPLErr@@PEBD0@Z
        657  290 00035DB0 ?Delete@GDALDriver@@QEAA?AW4CPLErr@@PEBD@Z
        658  291 002DA840 ?Delete@VRTDataset@@SA?AW4CPLErr@@PEBD@Z
        659  292 002F7290 ?DeleteDataSource@OGRSFDriver@@UEAAHPEBD@Z
        660  293 002F4DC0 ?DeleteFeature@OGRLayer@@UEAAHJ@Z
        661  294 002F5EA0 ?DeleteLayer@OGRDataSource@@UEAAHH@Z
        662  295 00031430 ?Dereference@GDALDataset@@QEAAHXZ
        663  296 002F5840 ?Dereference@OGRDataSource@@QEAAHXZ
        664  297 00076E00 ?Dereference@OGRFeatureDefn@@QEAAHXZ
        665  298 002F3D60 ?Dereference@OGRLayer@@QEAAHXZ
        666  299 00442C10 ?Dereference@OGRSpatialReference@@QEAAHXZ
        667  29A 00037AA0 ?DeregisterDriver@GDALDriverManager@@QEAAXPEAVGDALDriver@@@Z
        668  29B 002F3440 ?DeregisterDriver@OGRSFDriverRegistrar@@QEAAXPEAVOGRSFDriver@@@Z
        669  29C 002E90C0 ?DescribeCoverage@WCSDataset@@AEAAHXZ
        670  29D 00441130 ?DestroyCT@OGRCoordinateTransformation@@SAXPEAV1@@Z
        671  29E 0044E370 ?DestroyChild@OGR_SRSNode@@QEAAXH@Z
        672  29F 002F5740 ?DestroyDataSource@OGRDataSource@@SAXPEAV1@@Z
        673  2A0 00463890 ?DestroyFeature@OGRFeature@@SAXPEAV1@@Z
        674  2A1 0046ACE0 ?DestroyFeatureDefn@OGRFeatureDefn@@SAXPEAV1@@Z
        675  2A2 00442A80 ?DestroySpatialReference@OGRSpatialReference@@SAXPEAV1@@Z
        676  2A3 0004F290 ?Detach@GDALRasterBlock@@QEAAXXZ
        677  2A4 00450460 ?Difference@OGRGeometry@@UEBAPEAV1@PEBV1@@Z
        678  2A5 002EB810 ?DirectRasterIO@WCSDataset@@AEAA?AW4CPLErr@@W4GDALRWFlag@@HHHHPEAXHHW4GDALDataType@@HPEAHHHH@Z
        679  2A6 004506C0 ?Disjoint@OGRGeometry@@UEBAHPEBV1@@Z
        680  2A7 0044FDE0 ?Distance@OGRGeometry@@UEBANPEBV1@@Z
        681  2A8 0002EA50 ?DropLock@GDALRasterBlock@@QEAAXXZ
        682  2A9 0030FBF0 ?Dump@GMLFeature@@QEAAXPEAU_iobuf@@@Z
        683  2AA 00039FD0 ?DumpReadable@GDALJP2Box@@QEAAHPEAU_iobuf@@@Z
        684  2AB 00055FB0 ?DumpReadable@GDALRasterAttributeTable@@QEAAXPEAU_iobuf@@@Z
        685  2AC 004657F0 ?DumpReadable@OGRFeature@@QEAAXPEAU_iobuf@@PEAPEAD@Z
        686  2AD 00015A30 ?DumpResult@CPLODBCStatement@@QEAAXPEAU_iobuf@@H@Z
        687  2AE 0046D080 ?EPSGTreatsAsLatLong@OGRSpatialReference@@QEAAHXZ
        688  2AF 00032EC0 ?EndAsyncReader@GDALDataset@@UEAAXPEAVGDALAsyncReader@@@Z
        689  2B0 00452EC0 ?EndPoint@OGRLineString@@UEBAXPEAVOGRPoint@@@Z
        690  2B1 00465AB0 ?Equal@OGRFeature@@UEAAHPEAV1@@Z
        691  2B2 0044F1F0 ?Equal@OGRGeometry@@QEBAHPEAV1@@Z
        692  2B3 00457510 ?Equals@OGRGeometryCollection@@UEBAHPEAVOGRGeometry@@@Z
        693  2B4 00453290 ?Equals@OGRLineString@@UEBAHPEAVOGRGeometry@@@Z
        694  2B5 00451790 ?Equals@OGRPoint@@UEBAHPEAVOGRGeometry@@@Z
        695  2B6 004560E0 ?Equals@OGRPolygon@@UEBAHPEAVOGRGeometry@@@Z
        696  2B7 002EBB40 ?EstablishRasterDetails@WCSDataset@@AEAAHXZ
        697  2B8 000145C0 ?EstablishSession@CPLODBCSession@@QEAAHPEBD00@Z
        698  2B9 00480D00 ?Evaluate@OGRFeatureQuery@@QEAAHPEAVOGRFeature@@@Z
        699  2BA 00480D80 ?EvaluateAgainstIndices@OGRFeatureQuery@@QEAAPEAJPEAVOGRLayer@@PEAH@Z
        700  2BB 00015600 ?ExecuteSQL@CPLODBCStatement@@QEAAHPEBD@Z
        701  2BC 002F6BE0 ?ExecuteSQL@OGRDataSource@@UEAAPEAVOGRLayer@@PEBDPEAVOGRGeometry@@0@Z
        702  2BD 00305F50 ?ExploreExprForIgnoredFields@OGRGenSQLResultsLayer@@AEAAXPEAVswq_expr_node@@PEAU_CPLHashSet@@@Z
        703  2BE 002E9360 ?ExtractGridInfo100@WCSDataset@@AEAAHXZ
        704  2BF 002E9F60 ?ExtractGridInfo@WCSDataset@@AEAAHXZ
        705  2C0 00013A30 ?Failed@CPLODBCSession@@QEAAHHPEAX@Z
        706  2C1 00013D80 ?Failed@CPLODBCStatement@@AEAAHH@Z
        707  2C2 00014B30 ?Fetch@CPLODBCStatement@@QEAAHHH@Z
        708  2C3 003C4DA0 ?FetchLine@S57Reader@@AEAAHPEAVDDFRecord@@HHPEAVOGRLineString@@@Z
        709  2C4 003C4830 ?FetchPoint@S57Reader@@AEAAHHHPEAN00@Z
        710  2C5 00480FD0 ?FieldCollector@OGRFeatureQuery@@AEAAPEAPEADPEAXPEAPEAD@Z
        711  2C6 00046990 ?Fill@GDALProxyRasterBand@@UEAA?AW4CPLErr@@NN@Z
        712  2C7 0004CDB0 ?Fill@GDALRasterBand@@UEAA?AW4CPLErr@@NN@Z
        713  2C8 002F4BA0 ?FilterGeometry@OGRLayer@@IEAAHPEAVOGRGeometry@@@Z
        714  2C9 0043C750 ?Find@OGRStyleTable@@QEAAPEBDPEBD@Z
        715  2CA 003C83D0 ?FindAndApplyUpdates@S57Reader@@QEAAHPEBD@Z
        716  2CB 0033B830 ?FindAttrByAcronym@S57ClassRegistrar@@QEAAHPEBD@Z
        717  2CC 0044D8F0 ?FindChild@OGR_SRSNode@@QEBAHPEBD@Z
        718  2CD 003C5130 ?FindFDefn@S57Reader@@AEAAPEAVOGRFeatureDefn@@PEAVDDFRecord@@@Z
        719  2CE 0033AE20 ?FindFile@S57ClassRegistrar@@AEAAHPEBD0HPEAPEAU_iobuf@@@Z
        720  2CF 004450E0 ?FindProjParm@OGRSpatialReference@@QEBAHPEBDPEBVOGR_SRSNode@@@Z
        721  2D0 0041E8C0 ?FindRecord@DDFRecordIndex@@QEAAPEAVDDFRecord@@H@Z
        722  2D1 0041E960 ?FindRecordByObjl@DDFRecordIndex@@QEAAPEAVDDFRecord@@H@Z
        723  2D2 00446930 ?Fixup@OGRSpatialReference@@QEAAHXZ
        724  2D3 004468B0 ?FixupOrdering@OGRSpatialReference@@QEAAHXZ
        725  2D4 0044E130 ?FixupOrdering@OGR_SRSNode@@QEAAHXZ
        726  2D5 004D4D50 ?Flush@VSIVirtualHandle@@UEAAHXZ
        727  2D6 0004A140 ?FlushBlock@GDALRasterBand@@QEAA?AW4CPLErr@@HHH@Z
        728  2D7 00030CB0 ?FlushCache@GDALDataset@@UEAAXXZ
        729  2D8 0003E480 ?FlushCache@GDALPamDataset@@UEAAXXZ
        730  2D9 000457E0 ?FlushCache@GDALProxyDataset@@UEAAXXZ
        731  2DA 000464D0 ?FlushCache@GDALProxyRasterBand@@UEAA?AW4CPLErr@@XZ
        732  2DB 0004C9A0 ?FlushCache@GDALRasterBand@@UEAA?AW4CPLErr@@XZ
        733  2DC 0015A8D0 ?FlushCache@HFADataset@@UEAAXXZ
        734  2DD 00264BD0 ?FlushCache@RawRasterBand@@UEAA?AW4CPLErr@@XZ
        735  2DE 002D9660 ?FlushCache@VRTDataset@@UEAAXXZ
        736  2DF 0004F550 ?FlushCacheBlock@GDALRasterBlock@@SAHXZ
        737  2E0 002EAF80 ?FlushMemoryResult@WCSDataset@@AEAAXXZ
        738  2E1 000769F0 ?FontName@OGRStyleLabel@@QEAAPEBDAEAH@Z
        739  2E2 000768E0 ?FontName@OGRStyleSymbol@@QEAAPEBDAEAH@Z
        740  2E3 00076590 ?ForeColor@OGRStyleBrush@@QEAAPEBDAEAH@Z
        741  2E4 00076A70 ?ForeColor@OGRStyleLabel@@QEAAPEBDAEAH@Z
        742  2E5 00005660 ?FormatC@CPLString@@QEAAAEAV1@NPEBD@Z
        743  2E6 002EB090 ?GDALOpenResult@WCSDataset@@AEAAPEAVGDALDataset@@PEAUCPLHTTPResult@@@Z
        744  2E7 0003A910 ?GMLSRSLookup@GDALJP2Metadata@@AEAAHPEBD@Z
        745  2E8 003C6270 ?GenerateFSPTAttributes@S57Reader@@AEAAXPEAVDDFRecord@@PEAVOGRFeature@@@Z
        746  2E9 003C3AA0 ?GenerateLNAMAndRefs@S57Reader@@AEAAXPEAVDDFRecord@@PEAVOGRFeature@@@Z
        747  2EA 0001C7C0 ?Get@VSIFileManager@@CAPEAV1@XZ
        748  2EB 0002E9B0 ?GetAccess@GDALDataset@@QEAA?AW4GDALAccess@@XZ
        749  2EC 0004A420 ?GetAccess@GDALRasterBand@@QEAA?AW4GDALAccess@@XZ
        750  2ED 0033B660 ?GetAcronym@S57ClassRegistrar@@QEAAPEBDXZ
        751  2EE 00443640 ?GetAngularUnits@OGRSpatialReference@@QEBANPEAPEAD@Z
        752  2EF 003033C0 ?GetAttrAcronym@S57ClassRegistrar@@QEAAPEBDH@Z
        753  2F0 003033F0 ?GetAttrClass@S57ClassRegistrar@@QEAADH@Z
        754  2F1 003033B0 ?GetAttrName@S57ClassRegistrar@@QEAAPEBDH@Z
        755  2F2 00442E20 ?GetAttrNode@OGRSpatialReference@@QEAAPEAVOGR_SRSNode@@PEBD@Z
        756  2F3 00442EC0 ?GetAttrNode@OGRSpatialReference@@QEBAPEBVOGR_SRSNode@@PEBD@Z
        757  2F4 003033E0 ?GetAttrType@S57ClassRegistrar@@QEAADH@Z
        758  2F5 00442ED0 ?GetAttrValue@OGRSpatialReference@@QEBAPEBDPEBDH@Z
        759  2F6 003033D0 ?GetAttrValues@S57ClassRegistrar@@QEAAPEAPEADH@Z
        760  2F7 002FD590 ?GetAttributeIndex@GMLPropertyDefn@@QEAAHXZ
        761  2F8 0033B690 ?GetAttributeList@S57ClassRegistrar@@QEAAPEAPEADPEBD@Z
        762  2F9 00445540 ?GetAuthorityCode@OGRSpatialReference@@QEBAPEBDPEBD@Z
        763  2FA 00445610 ?GetAuthorityName@OGRSpatialReference@@QEBAPEBDPEBD@Z
        764  2FB 00446DA0 ?GetAxis@OGRSpatialReference@@QEBAPEBDPEBDHPEAW4OGRAxisOrientation@@@Z
        765  2FC 0004B150 ?GetBand@GDALRasterBand@@QEAAHXZ
        766  2FD 0002EA70 ?GetBand@GDALRasterBlock@@QEAAPEAVGDALRasterBand@@XZ
        767  2FE 0002EEA0 ?GetBandCount@GDALAsyncReader@@QEAAHXZ
        768  2FF 0033A190 ?GetBandMap@GDALAsyncReader@@QEAAPEAHXZ
        769  300 003156F0 ?GetBandSpace@GDALAsyncReader@@QEAAHXZ
        770  301 00049D80 ?GetBlockSize@GDALRasterBand@@QEAAXPEAH0@Z
        771  302 002E5940 ?GetBlockSize@VRTWarpedDataset@@QEAAXPEAH0@Z
        772  303 00027940 ?GetBuffer@GDALAsyncReader@@QEAAPEAXXZ
        773  304 0002EE90 ?GetBufferType@GDALAsyncReader@@QEAA?AW4GDALDataType@@XZ
        774  305 00076D90 ?GetBufferXSize@GDALAsyncReader@@QEAAHXZ
        775  306 00076E10 ?GetBufferYSize@GDALAsyncReader@@QEAAHXZ
        776  307 0041E740 ?GetByIndex@DDFRecordIndex@@QEAAPEAVDDFRecord@@H@Z
        777  308 000424A0 ?GetCategoryNames@GDALPamRasterBand@@UEAAPEAPEADXZ
        778  309 00048C60 ?GetCategoryNames@GDALProxyPoolRasterBand@@UEAAPEAPEADXZ
        779  30A 00046540 ?GetCategoryNames@GDALProxyRasterBand@@UEAAPEAPEADXZ
        780  30B 0004A480 ?GetCategoryNames@GDALRasterBand@@UEAAPEAPEADXZ
        781  30C 001E5DE0 ?GetCategoryNames@MEMRasterBand@@UEAAPEAPEADXZ
        782  30D 00264D70 ?GetCategoryNames@RawRasterBand@@UEAAPEAPEADXZ
        783  30E 002DDC50 ?GetCategoryNames@VRTRasterBand@@UEAAPEAPEADXZ
        784  30F 0044D720 ?GetChild@OGR_SRSNode@@QEAAPEAV1@H@Z
        785  310 0044D740 ?GetChild@OGR_SRSNode@@QEBAPEBV1@H@Z
        786  311 0002EA60 ?GetChildCount@OGR_SRSNode@@QEBAHXZ
        787  312 00076270 ?GetClass@GMLFeature@@QEBAPEAVGMLFeatureClass@@XZ
        788  313 0033B780 ?GetClassCode@S57ClassRegistrar@@QEAADXZ
        789  314 0041E7B0 ?GetClientInfoByIndex@DDFRecordIndex@@QEAAPEAXH@Z
        790  315 00013B00 ?GetColCount@CPLODBCStatement@@QEAAHXZ
        791  316 00013C30 ?GetColData@CPLODBCStatement@@QEAAPEBDHPEBD@Z
        792  317 000150A0 ?GetColData@CPLODBCStatement@@QEAAPEBDPEBD0@Z
        793  318 00013C60 ?GetColDataLength@CPLODBCStatement@@QEAAHH@Z
        794  319 00013C90 ?GetColId@CPLODBCStatement@@QEAAHPEBD@Z
        795  31A 00013B10 ?GetColName@CPLODBCStatement@@QEAAPEBDH@Z
        796  31B 00013C00 ?GetColNullable@CPLODBCStatement@@QEAAFH@Z
        797  31C 00054E90 ?GetColOfUsage@GDALRasterAttributeTable@@QEBAHW4GDALRATFieldUsage@@@Z
        798  31D 00013BD0 ?GetColPrecision@CPLODBCStatement@@QEAAFH@Z
        799  31E 00013BA0 ?GetColSize@CPLODBCStatement@@QEAAFH@Z
        800  31F 00013B40 ?GetColType@CPLODBCStatement@@QEAAFH@Z
        801  320 00013B70 ?GetColTypeName@CPLODBCStatement@@QEAAPEBDH@Z
        802  321 0002FD00 ?GetColorEntry@GDALColorTable@@QEBAPEBUGDALColorEntry@@H@Z
        803  322 0002FDA0 ?GetColorEntryAsRGB@GDALColorTable@@QEBAHHPEAUGDALColorEntry@@@Z
        804  323 0002FE70 ?GetColorEntryCount@GDALColorTable@@QEBAHXZ
        805  324 00042690 ?GetColorInterpretation@GDALPamRasterBand@@UEAA?AW4GDALColorInterp@@XZ
        806  325 000468B0 ?GetColorInterpretation@GDALProxyRasterBand@@UEAA?AW4GDALColorInterp@@XZ
        807  326 0004A990 ?GetColorInterpretation@GDALRasterBand@@UEAA?AW4GDALColorInterp@@XZ
        808  327 001E5C20 ?GetColorInterpretation@MEMRasterBand@@UEAA?AW4GDALColorInterp@@XZ
        809  328 00264E60 ?GetColorInterpretation@RawRasterBand@@UEAA?AW4GDALColorInterp@@XZ
        810  329 002DDE10 ?GetColorInterpretation@VRTRasterBand@@UEAA?AW4GDALColorInterp@@XZ
        811  32A 00042540 ?GetColorTable@GDALPamRasterBand@@UEAAPEAVGDALColorTable@@XZ
        812  32B 00048D80 ?GetColorTable@GDALProxyPoolRasterBand@@UEAAPEAVGDALColorTable@@XZ
        813  32C 00046920 ?GetColorTable@GDALProxyRasterBand@@UEAAPEAVGDALColorTable@@XZ
        814  32D 0004AA80 ?GetColorTable@GDALRasterBand@@UEAAPEAVGDALColorTable@@XZ
        815  32E 001E5C50 ?GetColorTable@MEMRasterBand@@UEAAPEAVGDALColorTable@@XZ
        816  32F 00264E40 ?GetColorTable@RawRasterBand@@UEAAPEAVGDALColorTable@@XZ
        817  330 002DDDE0 ?GetColorTable@VRTRasterBand@@UEAAPEAVGDALColorTable@@XZ
        818  331 00054C50 ?GetColumnCount@GDALRasterAttributeTable@@QEBAHXZ
        819  332 00015140 ?GetColumns@CPLODBCStatement@@QEAAHPEBD00@Z
        820  333 000136C0 ?GetCommand@CPLODBCStatement@@QEAAPEBDXZ
        821  334 00013680 ?GetConnection@CPLODBCSession@@QEAAPEAXXZ
        822  335 00303400 ?GetCount@DDFRecordIndex@@QEAAHXZ
        823  336 002E83D0 ?GetCoverage@WCSDataset@@AEAA?AW4CPLErr@@HHHHHHHPEAHPEAPEAUCPLHTTPResult@@@Z
        824  337 00303460 ?GetDSNM@S57Reader@@QEAAPEBDXZ
        825  338 001E58E0 ?GetData@MEMRasterBand@@QEBAPEAEXZ
        826  339 00076270 ?GetDataBlock@VFKFeature@@QEBAPEAVVFKDataBlock@@XZ
        827  33A 000397E0 ?GetDataLength@GDALJP2Box@@QEAA_JXZ
        828  33B 003263D0 ?GetDataRef@GDALRasterBlock@@QEAAPEAXXZ
        829  33C 00076270 ?GetDataSetStyleTable@OGRStyleMgr@@QEAAPEAVOGRStyleTable@@XZ
        830  33D 004BBA80 ?GetDataType@GDALRasterBlock@@QEAA?AW4GDALDataType@@XZ
        831  33E 0004B1B0 ?GetDataset@GDALRasterBand@@QEAAPEAVGDALDataset@@XZ
        832  33F 00042A20 ?GetDefaultHistogram@GDALPamRasterBand@@UEAA?AW4CPLErr@@PEAN0PEAHPEAPEAHHP6AHNPEBDPEAX@Z4@Z
        833  340 00047440 ?GetDefaultHistogram@GDALProxyRasterBand@@UEAA?AW4CPLErr@@PEAN0PEAHPEAPEAHHP6AHNPEBDPEAX@Z4@Z
        834  341 0004B2E0 ?GetDefaultHistogram@GDALRasterBand@@UEAA?AW4CPLErr@@PEAN0PEAHPEAPEAHHP6AHNPEBDPEAX@Z4@Z
        835  342 002DE0A0 ?GetDefaultHistogram@VRTRasterBand@@UEAA?AW4CPLErr@@PEAN0PEAHPEAPEAHHP6AHNPEBDPEAX@Z4@Z
        836  343 00042B30 ?GetDefaultRAT@GDALPamRasterBand@@UEAAPEBVGDALRasterAttributeTable@@XZ
        837  344 000475A0 ?GetDefaultRAT@GDALProxyRasterBand@@UEAAPEBVGDALRasterAttributeTable@@XZ
        838  345 0004BC60 ?GetDefaultRAT@GDALRasterBand@@UEAAPEBVGDALRasterAttributeTable@@XZ
        839  346 00076D80 ?GetDefaultRef@OGRFieldDefn@@QEAAPEBTOGRField@@XZ
        840  347 003CDBC0 ?GetDefnRef@OGRFeature@@QEAAPEAVOGRFeatureDefn@@XZ
        841  348 0003BEC0 ?GetDescription@GDALMajorObject@@UEBAPEBDXZ
        842  349 0033B640 ?GetDescription@S57ClassRegistrar@@QEAAPEBDXZ
        843  34A 000762B0 ?GetDirty@GDALRasterBlock@@QEAAHXZ
        844  34B 00076270 ?GetDomainList@GDALMultiDomainMetadata@@QEAAPEAPEADXZ
        845  34C 00031370 ?GetDriver@GDALDataset@@UEAAPEAVGDALDriver@@XZ
        846  34D 00037A20 ?GetDriver@GDALDriverManager@@QEAAPEAVGDALDriver@@H@Z
        847  34E 00045C80 ?GetDriver@GDALProxyDataset@@UEAAPEAVGDALDriver@@XZ
        848  34F 002F6980 ?GetDriver@OGRDataSource@@QEBAPEAVOGRSFDriver@@XZ
        849  350 002F3590 ?GetDriver@OGRSFDriverRegistrar@@QEAAPEAVOGRSFDriver@@H@Z
        850  351 00037B60 ?GetDriverByName@GDALDriverManager@@QEAAPEAVGDALDriver@@PEBD@Z
        851  352 002F3670 ?GetDriverByName@OGRSFDriverRegistrar@@QEAAPEAVOGRSFDriver@@PEBD@Z
        852  353 00037A10 ?GetDriverCount@GDALDriverManager@@QEAAHXZ
        853  354 002F3560 ?GetDriverCount@OGRSFDriverRegistrar@@QEAAHXZ
        854  355 0046CA80 ?GetEPSGGeogCS@OGRSpatialReference@@QEAAHXZ
        855  356 0030EBE0 ?GetElementName@GMLFeatureClass@@QEBAPEBDXZ
        856  357 00013690 ?GetEnvironment@CPLODBCSession@@QEAAPEAXXZ
        857  358 00446B50 ?GetExtension@OGRSpatialReference@@QEBAPEBDPEBD00@Z
        858  359 003058D0 ?GetExtent@OGRGenSQLResultsLayer@@UEAAHPEAVOGREnvelope@@H@Z
        859  35A 002F3F00 ?GetExtent@OGRLayer@@UEAAHPEAVOGREnvelope@@H@Z
        860  35B 003C90E0 ?GetExtent@S57Reader@@QEAAHPEAVOGREnvelope@@H@Z
        861  35C 0030ECF0 ?GetExtents@GMLFeatureClass@@QEAAHPEAN000@Z
        862  35D 0030EC60 ?GetExtraInfo@GMLFeatureClass@@QEAAPEBDXZ
        863  35E 004A8960 ?GetFID@GMLFeature@@QEBAPEBDXZ
        864  35F 004BBA80 ?GetFID@OGRFeature@@QEAAJXZ
        865  360 00076D90 ?GetFID@VFKFeature@@QEBAJXZ
        866  361 002F4E80 ?GetFIDColumn@OGRLayer@@UEAAPEBDXZ
        867  362 00076270 ?GetFILE@GDALJP2Box@@QEAAPEAU_iobuf@@XZ
        868  363 000B18C0 ?GetFP@RawRasterBand@@QEAAPEAU_iobuf@@XZ
        869  364 000B18E0 ?GetFPL@RawRasterBand@@QEAAPEAU_iobuf@@XZ
        870  365 00307AF0 ?GetFeature@OGRGenSQLResultsLayer@@UEAAPEAVOGRFeature@@J@Z
        871  366 002F4210 ?GetFeature@OGRLayer@@UEAAPEAVOGRFeature@@J@Z
        872  367 00361880 ?GetFeature@VFKDataBlock@@QEAAPEAVVFKFeature@@HHPEAV?$vector@PEAVVFKFeature@@V?$allocator@PEAVVFKFeature@@@std@@@std@@@Z
        873  368 003630A0 ?GetFeature@VFKDataBlock@@QEAAPEAVVFKFeature@@J@Z
        874  369 00361380 ?GetFeatureByIndex@VFKDataBlock@@QEBAPEAVVFKFeature@@H@Z
        875  36A 0030EC40 ?GetFeatureCount@GMLFeatureClass@@QEAAHXZ
        876  36B 00306450 ?GetFeatureCount@OGRGenSQLResultsLayer@@UEAAHH@Z
        877  36C 002F3E20 ?GetFeatureCount@OGRLayer@@UEAAHH@Z
        878  36D 00363170 ?GetFeatureCount@VFKDataBlock@@QEAAHPEBD0@Z
        879  36E 0002EA60 ?GetFeatureCount@VFKDataBlock@@QEBAHXZ
        880  36F 00361970 ?GetFeatures@VFKDataBlock@@QEAA?AV?$vector@PEAVVFKFeature@@V?$allocator@PEAVVFKFeature@@@std@@@std@@HH@Z
        881  370 00361AB0 ?GetFeatures@VFKDataBlock@@QEAA?AV?$vector@PEAVVFKFeature@@V?$allocator@PEAVVFKFeature@@@std@@@std@@HHH@Z
        882  371 002F4E20 ?GetFeaturesRead@OGRLayer@@QEAA_JXZ
        883  372 00464E10 ?GetFieldAsBinary@OGRFeature@@QEAAPEAEHPEAH@Z
        884  373 00464F10 ?GetFieldAsDateTime@OGRFeature@@QEAAHHPEAH000000@Z
        885  374 00464080 ?GetFieldAsDouble@OGRFeature@@QEAANH@Z
        886  375 00076FB0 ?GetFieldAsDouble@OGRFeature@@QEAANPEBD@Z
        887  376 00464C50 ?GetFieldAsDoubleList@OGRFeature@@QEAAPEBNHPEAH@Z
        888  377 00077040 ?GetFieldAsDoubleList@OGRFeature@@QEAAPEBNPEBDPEAH@Z
        889  378 00463F20 ?GetFieldAsInteger@OGRFeature@@QEAAHH@Z
        890  379 00076F80 ?GetFieldAsInteger@OGRFeature@@QEAAHPEBD@Z
        891  37A 00464B60 ?GetFieldAsIntegerList@OGRFeature@@QEAAPEBHHPEAH@Z
        892  37B 00077010 ?GetFieldAsIntegerList@OGRFeature@@QEAAPEBHPEBDPEAH@Z
        893  37C 004641F0 ?GetFieldAsString@OGRFeature@@QEAAPEBDH@Z
        894  37D 00076FE0 ?GetFieldAsString@OGRFeature@@QEAAPEBDPEBD@Z
        895  37E 00077070 ?GetFieldAsStringList@OGRFeature@@QEAAPEAPEADPEBD@Z
        896  37F 00464D40 ?GetFieldAsStringList@OGRFeature@@QEBAPEAPEADH@Z
        897  380 00076F40 ?GetFieldCount@OGRFeature@@QEAAHXZ
        898  381 000762B0 ?GetFieldCount@OGRFeatureDefn@@QEAAHXZ
        899  382 0046A9F0 ?GetFieldDefn@OGRFeatureDefn@@QEAAPEAVOGRFieldDefn@@H@Z
        900  383 00076F50 ?GetFieldDefnRef@OGRFeature@@QEAAPEAVOGRFieldDefn@@H@Z
        901  384 00076F60 ?GetFieldIndex@OGRFeature@@QEAAHPEBD@Z
        902  385 0046ABA0 ?GetFieldIndex@OGRFeatureDefn@@QEAAHPEBD@Z
        903  386 00485130 ?GetFieldTypeName@OGRFieldDefn@@SAPEBDW4OGRFieldType@@@Z
        904  387 00097D70 ?GetFileList@AAIGDataset@@UEAAPEAPEADXZ
        905  388 000A34E0 ?GetFileList@AIGDataset@@UEAAPEAPEADXZ
        906  389 00033370 ?GetFileList@GDALDataset@@UEAAPEAPEADXZ
        907  38A 0003EFB0 ?GetFileList@GDALPamDataset@@UEAAPEAPEADXZ
        908  38B 00045CF0 ?GetFileList@GDALProxyDataset@@UEAAPEAPEADXZ
        909  38C 001586B0 ?GetFileList@HFADataset@@UEAAPEAPEADXZ
        910  38D 002DA790 ?GetFileList@VRTDataset@@UEAAPEAPEADXZ
        911  38E 002DE830 ?GetFileList@VRTRasterBand@@UEAAXPEAPEAPEADPEAH1PEAU_CPLHashSet@@@Z
        912  38F 002DFDE0 ?GetFileList@VRTRawRasterBand@@UEAAXPEAPEAPEADPEAH1PEAU_CPLHashSet@@@Z
        913  390 002E18D0 ?GetFileList@VRTSourcedRasterBand@@UEAAXPEAPEAPEADPEAH1PEAU_CPLHashSet@@@Z
        914  391 002E5070 ?GetFileList@VRTWarpedDataset@@UEAAPEAPEADXZ
        915  392 00363010 ?GetFirstFeature@VFKDataBlock@@QEAAPEAVVFKFeature@@XZ
        916  393 000315E0 ?GetGCPCount@GDALDataset@@UEAAHXZ
        917  394 0003EAE0 ?GetGCPCount@GDALPamDataset@@UEAAHXZ
        918  395 00045D60 ?GetGCPCount@GDALProxyDataset@@UEAAHXZ
        919  396 00158670 ?GetGCPCount@HFADataset@@UEAAHXZ
        920  397 001E5FC0 ?GetGCPCount@MEMDataset@@UEAAHXZ
        921  398 002D9C80 ?GetGCPCount@VRTDataset@@UEAAHXZ
        922  399 00031640 ?GetGCPProjection@GDALDataset@@UEAAPEBDXZ
        923  39A 0003EB10 ?GetGCPProjection@GDALPamDataset@@UEAAPEBDXZ
        924  39B 00045DD0 ?GetGCPProjection@GDALProxyDataset@@UEAAPEBDXZ
        925  39C 00048760 ?GetGCPProjection@GDALProxyPoolDataset@@UEAAPEBDXZ
        926  39D 00158680 ?GetGCPProjection@HFADataset@@UEAAPEBDXZ
        927  39E 001E6330 ?GetGCPProjection@MEMDataset@@UEAAPEBDXZ
        928  39F 002D9C90 ?GetGCPProjection@VRTDataset@@UEAAPEBDXZ
        929  3A0 000316A0 ?GetGCPs@GDALDataset@@UEAAPEBUGDAL_GCP@@XZ
        930  3A1 0003EB40 ?GetGCPs@GDALPamDataset@@UEAAPEBUGDAL_GCP@@XZ
        931  3A2 00045E40 ?GetGCPs@GDALProxyDataset@@UEAAPEBUGDAL_GCP@@XZ
        932  3A3 000487F0 ?GetGCPs@GDALProxyPoolDataset@@UEAAPEBUGDAL_GCP@@XZ
        933  3A4 001586A0 ?GetGCPs@HFADataset@@UEAAPEBUGDAL_GCP@@XZ
        934  3A5 001E5FD0 ?GetGCPs@MEMDataset@@UEAAPEBUGDAL_GCP@@XZ
        935  3A6 002D9CA0 ?GetGCPs@VRTDataset@@UEAAPEBUGDAL_GCP@@XZ
        936  3A7 004A8960 ?GetGDALDataset@GDALAsyncReader@@QEAAPEAVGDALDataset@@XZ
        937  3A8 00097A70 ?GetGeoTransform@AAIGDataset@@UEAA?AW4CPLErr@@PEAN@Z
        938  3A9 000A35A0 ?GetGeoTransform@AIGDataset@@UEAA?AW4CPLErr@@PEAN@Z
        939  3AA 00031200 ?GetGeoTransform@GDALDataset@@UEAA?AW4CPLErr@@PEAN@Z
        940  3AB 0003EA90 ?GetGeoTransform@GDALPamDataset@@UEAA?AW4CPLErr@@PEAN@Z
        941  3AC 00045B10 ?GetGeoTransform@GDALProxyDataset@@UEAA?AW4CPLErr@@PEAN@Z
        942  3AD 000484B0 ?GetGeoTransform@GDALProxyPoolDataset@@UEAA?AW4CPLErr@@PEAN@Z
        943  3AE 00158400 ?GetGeoTransform@HFADataset@@UEAA?AW4CPLErr@@PEAN@Z
        944  3AF 001E5E90 ?GetGeoTransform@MEMDataset@@UEAA?AW4CPLErr@@PEAN@Z
        945  3B0 002D9E30 ?GetGeoTransform@VRTDataset@@UEAA?AW4CPLErr@@PEAN@Z
        946  3B1 002E8030 ?GetGeoTransform@WCSDataset@@UEAA?AW4CPLErr@@PEAN@Z
        947  3B2 0002EA60 ?GetGeomType@OGRFeatureDefn@@QEAA?AW4OGRwkbGeometryType@@XZ
        948  3B3 002F51A0 ?GetGeomType@OGRLayer@@UEAA?AW4OGRwkbGeometryType@@XZ
        949  3B4 002FD600 ?GetGeometry@GMLFeature@@QEBAPEBDXZ
        950  3B5 003FE340 ?GetGeometry@VFKFeature@@QEAAPEAVOGRGeometry@@XZ
        951  3B6 002FD5D0 ?GetGeometryAttributeIndex@GMLFeatureClass@@QEBAHXZ
        952  3B7 002F4EE0 ?GetGeometryColumn@OGRLayer@@UEAAPEBDXZ
        953  3B8 003CDBC0 ?GetGeometryElement@GMLFeatureClass@@QEBAPEBDXZ
        954  3B9 00027940 ?GetGeometryList@GMLFeature@@QEAAPEAPEADXZ
        955  3BA 003CDBB0 ?GetGeometryRef@OGRFeature@@QEAAPEAVOGRGeometry@@XZ
        956  3BB 00311B50 ?GetGeometryType@GMLFeatureClass@@QEBAHXZ
        957  3BC 00361370 ?GetGeometryType@VFKDataBlock@@QEBA?AW4OGRwkbGeometryType@@XZ
        958  3BD 00076E10 ?GetGeometryType@VFKFeature@@QEBA?AW4OGRwkbGeometryType@@XZ
        959  3BE 0001C850 ?GetHandler@VSIFileManager@@SAPEAVVSIFilesystemHandler@@PEBD@Z
        960  3BF 00044050 ?GetHistogram@GDALPamRasterBand@@UEAA?AW4CPLErr@@NNHPEAHHHP6AHNPEBDPEAX@Z2@Z
        961  3C0 00047370 ?GetHistogram@GDALProxyRasterBand@@UEAA?AW4CPLErr@@NNHPEAHHHP6AHNPEBDPEAX@Z2@Z
        962  3C1 0004D0A0 ?GetHistogram@GDALRasterBand@@UEAA?AW4CPLErr@@NNHPEAHHHP6AHNPEBDPEAX@Z2@Z
        963  3C2 002DDE20 ?GetHistogram@VRTRasterBand@@UEAA?AW4CPLErr@@NNHPEAHHHP6AHNPEBDPEAX@Z2@Z
        964  3C3 00037C30 ?GetHome@GDALDriverManager@@QEAAPEBDXZ
        965  3C4 000B1870 ?GetImgOffset@RawRasterBand@@QEAA_KXZ
        966  3C5 000773B0 ?GetIndex@OGRLayer@@QEAAPEAVOGRLayerAttrIndex@@XZ
        967  3C6 0004C2B0 ?GetIndexColorTranslationTo@GDALRasterBand@@QEAAPEAEPEAV1@PEAEPEAH@Z
        968  3C7 002F44F0 ?GetInfo@OGRLayer@@UEAAPEBDPEBD@Z
        969  3C8 00031310 ?GetInternalHandle@GDALDataset@@UEAAPEAXPEBD@Z
        970  3C9 00045C10 ?GetInternalHandle@GDALProxyDataset@@UEAAPEAXPEBD@Z
        971  3CA 00048720 ?GetInternalHandle@GDALProxyPoolDataset@@UEAAPEAXPEBD@Z
        972  3CB 001E5F50 ?GetInternalHandle@MEMDataset@@UEAAPEAXPEBD@Z
        973  3CC 004448A0 ?GetInvFlattening@OGRSpatialReference@@QEBANPEAH@Z
        974  3CD 000B18B0 ?GetIsVSIL@RawRasterBand@@QEAAHXZ
        975  3CE 000762B0 ?GetJustify@OGRFieldDefn@@QEAA?AW4OGRJustification@@XZ
        976  3CF 00013630 ?GetLastError@CPLODBCDriverInstaller@@QEBAPEBDXZ
        977  3D0 00013AF0 ?GetLastError@CPLODBCSession@@QEAAPEBDXZ
        978  3D1 00013640 ?GetLastErrorCode@CPLODBCDriverInstaller@@QEBAKXZ
        979  3D2 00363050 ?GetLastFeature@VFKDataBlock@@QEAAPEAVVFKFeature@@XZ
        980  3D3 0043D340 ?GetLastStyleName@OGRStyleTable@@QEAAPEBDXZ
        981  3D4 002F5F20 ?GetLayerByName@OGRDataSource@@UEAAPEAVOGRLayer@@PEBD@Z
        982  3D5 00305CC0 ?GetLayerDefn@OGRGenSQLResultsLayer@@UEAAPEAVOGRFeatureDefn@@XZ
        983  3D6 000B1890 ?GetLineOffset@RawRasterBand@@QEAAHXZ
        984  3D7 0002EEC0 ?GetLineSpace@GDALAsyncReader@@QEAAHXZ
        985  3D8 00054BC0 ?GetLinearBinning@GDALRasterAttributeTable@@QEBAHPEAN0@Z
        986  3D9 00443B30 ?GetLinearUnits@OGRSpatialReference@@QEBANPEAPEAD@Z
        987  3DA 002FDFF0 ?GetLockCount@GDALRasterBlock@@QEAAHXZ
        988  3DB 0004CBF0 ?GetLockedBlockRef@GDALRasterBand@@QEAAPEAVGDALRasterBlock@@HHH@Z
        989  3DC 0003BEA0 ?GetMOFlags@GDALMajorObject@@QEAAHXZ
        990  3DD 0002F0F0 ?GetMaskBand@GDALAllValidMaskBand@@UEAAPEAVGDALRasterBand@@XZ
        991  3DE 00035730 ?GetMaskBand@GDALDefaultOverviews@@QEAAPEAVGDALRasterBand@@H@Z
        992  3DF 00049770 ?GetMaskBand@GDALProxyPoolRasterBand@@UEAAPEAVGDALRasterBand@@XZ
        993  3E0 00047690 ?GetMaskBand@GDALProxyRasterBand@@UEAAPEAVGDALRasterBand@@XZ
        994  3E1 0004BD90 ?GetMaskBand@GDALRasterBand@@UEAAPEAV1@XZ
        995  3E2 002DE1C0 ?GetMaskBand@VRTRasterBand@@UEAAPEAVGDALRasterBand@@XZ
        996  3E3 0002F100 ?GetMaskFlags@GDALAllValidMaskBand@@UEAAHXZ
        997  3E4 00035400 ?GetMaskFlags@GDALDefaultOverviews@@QEAAHH@Z
        998  3E5 00047700 ?GetMaskFlags@GDALProxyRasterBand@@UEAAHXZ
        999  3E6 0004C120 ?GetMaskFlags@GDALRasterBand@@UEAAHXZ
       1000  3E7 002DE1F0 ?GetMaskFlags@VRTRasterBand@@UEAAHXZ
       1001  3E8 0002EE90 ?GetMaxAttrIndex@S57ClassRegistrar@@QEAAHXZ
       1002  3E9 00076E10 ?GetMaxFID@VFKDataBlock@@QEBAJXZ
       1003  3EA 000466B0 ?GetMaximum@GDALProxyRasterBand@@UEAANPEAH@Z
       1004  3EB 0004A670 ?GetMaximum@GDALRasterBand@@UEAANPEAH@Z
       1005  3EC 0003BD00 ?GetMetadata@GDALMajorObject@@UEAAPEAPEADPEBD@Z
       1006  3ED 0003C0F0 ?GetMetadata@GDALMultiDomainMetadata@@QEAAPEAPEADPEBD@Z
       1007  3EE 0003EB70 ?GetMetadata@GDALPamDataset@@UEAAPEAPEADPEBD@Z
       1008  3EF 00045830 ?GetMetadata@GDALProxyDataset@@UEAAPEAPEADPEBD@Z
       1009  3F0 00048510 ?GetMetadata@GDALProxyPoolDataset@@UEAAPEAPEADPEBD@Z
       1010  3F1 00048A50 ?GetMetadata@GDALProxyPoolRasterBand@@UEAAPEAPEADPEBD@Z
       1011  3F2 000462E0 ?GetMetadata@GDALProxyRasterBand@@UEAAPEAPEADPEBD@Z
       1012  3F3 002E1420 ?GetMetadata@VRTSourcedRasterBand@@UEAAPEAPEADPEBD@Z
       1013  3F4 0003BDD0 ?GetMetadataItem@GDALMajorObject@@UEAAPEBDPEBD0@Z
       1014  3F5 0003C210 ?GetMetadataItem@GDALMultiDomainMetadata@@QEAAPEBDPEBD0@Z
       1015  3F6 000401A0 ?GetMetadataItem@GDALPamDataset@@UEAAPEBDPEBD0@Z
       1016  3F7 00045920 ?GetMetadataItem@GDALProxyDataset@@UEAAPEBDPEBD0@Z
       1017  3F8 00048600 ?GetMetadataItem@GDALProxyPoolDataset@@UEAAPEBDPEBD0@Z
       1018  3F9 00048B40 ?GetMetadataItem@GDALProxyPoolRasterBand@@UEAAPEBDPEBD0@Z
       1019  3FA 000463D0 ?GetMetadataItem@GDALProxyRasterBand@@UEAAPEBDPEBD0@Z
       1020  3FB 002E1C60 ?GetMetadataItem@VRTSourcedRasterBand@@UEAAPEBDPEBD0@Z
       1021  3FC 00046630 ?GetMinimum@GDALProxyRasterBand@@UEAANPEAH@Z
       1022  3FD 0004A810 ?GetMinimum@GDALRasterBand@@UEAANPEAH@Z
       1023  3FE 00303450 ?GetModule@S57Reader@@QEAAPEAVDDFModule@@XZ
       1024  3FF 00076270 ?GetName@GMLFeatureClass@@QEBAPEBDXZ
       1025  400 00076270 ?GetName@GMLPropertyDefn@@QEBAPEBDXZ
       1026  401 00027940 ?GetName@OGRFeatureDefn@@QEAAPEBDXZ
       1027  402 002F5130 ?GetName@OGRLayer@@UEAAPEBDXZ
       1028  403 00076270 ?GetName@VFKDataBlock@@QEBAPEBDXZ
       1029  404 00076270 ?GetName@VFKPropertyDefn@@QEBAPEBDXZ
       1030  405 00055110 ?GetNameOfCol@GDALRasterAttributeTable@@QEBAPEBDH@Z
       1031  406 00076270 ?GetNameRef@OGRFieldDefn@@QEAAPEBDXZ
       1032  407 000B18A0 ?GetNativeOrder@RawRasterBand@@QEAAHXZ
       1033  408 003C36F0 ?GetNextFEIndex@S57Reader@@QEAAHH@Z
       1034  409 003079F0 ?GetNextFeature@OGRGenSQLResultsLayer@@UEAAPEAVOGRFeature@@XZ
       1035  40A 00362F50 ?GetNextFeature@VFKDataBlock@@QEAAPEAVVFKFeature@@XZ
       1036  40B 0043E840 ?GetNextStyle@OGRStyleTable@@QEAAPEBDXZ
       1037  40C 00042200 ?GetNoDataValue@GDALPamRasterBand@@UEAANPEAH@Z
       1038  40D 000465B0 ?GetNoDataValue@GDALProxyRasterBand@@UEAANPEAH@Z
       1039  40E 0004A570 ?GetNoDataValue@GDALRasterBand@@UEAANPEAH@Z
       1040  40F 001E5BD0 ?GetNoDataValue@MEMRasterBand@@UEAANPEAH@Z
       1041  410 002DDD20 ?GetNoDataValue@VRTRasterBand@@UEAANPEAH@Z
       1042  411 0044D760 ?GetNode@OGR_SRSNode@@QEAAPEAV1@PEBD@Z
       1043  412 0044D850 ?GetNode@OGR_SRSNode@@QEBAPEBV1@PEBD@Z
       1044  413 00446810 ?GetNormInfo@OGRSpatialReference@@AEBAXXZ
       1045  414 00447BE0 ?GetNormProjParm@OGRSpatialReference@@QEBANPEBDNPEAH@Z
       1046  415 0033B610 ?GetOBJL@S57ClassRegistrar@@QEAAHXZ
       1047  416 0030FE30 ?GetOBProperties@GMLFeature@@QEAAPEAPEADXZ
       1048  417 0030FE20 ?GetOBProperty@GMLFeature@@QEAAPEBDPEBD@Z
       1049  418 00042230 ?GetOffset@GDALPamRasterBand@@UEAANPEAH@Z
       1050  419 00046730 ?GetOffset@GDALProxyRasterBand@@UEAANPEAH@Z
       1051  41A 0004ADA0 ?GetOffset@GDALRasterBand@@UEAANPEAH@Z
       1052  41B 001E5D60 ?GetOffset@MEMRasterBand@@UEAANPEAH@Z
       1053  41C 002DDBD0 ?GetOffset@VRTRasterBand@@UEAANPEAH@Z
       1054  41D 002F3190 ?GetOpenDS@OGRSFDriverRegistrar@@QEAAPEAVOGRDataSource@@H@Z
       1055  41E 002FDFF0 ?GetOpenDSCount@OGRSFDriverRegistrar@@QEAAHXZ
       1056  41F 000321D0 ?GetOpenDatasets@GDALDataset@@SAPEAPEAV1@PEAH@Z
       1057  420 00303440 ?GetOptionFlags@S57Reader@@QEAAHXZ
       1058  421 00089AF0 ?GetOptions@GDALWarpOperation@@QEAAPEBUGDALWarpOptions@@XZ
       1059  422 00033BC0 ?GetOverview@GDALDefaultOverviews@@QEAAPEAVGDALRasterBand@@HH@Z
       1060  423 000495F0 ?GetOverview@GDALProxyPoolRasterBand@@UEAAPEAVGDALRasterBand@@H@Z
       1061  424 00047120 ?GetOverview@GDALProxyRasterBand@@UEAAPEAVGDALRasterBand@@H@Z
       1062  425 0004AC70 ?GetOverview@GDALRasterBand@@UEAAPEAV1@H@Z
       1063  426 002DE9A0 ?GetOverview@VRTRasterBand@@UEAAPEAVGDALRasterBand@@H@Z
       1064  427 002E6040 ?GetOverview@VRTWarpedRasterBand@@UEAAPEAVGDALRasterBand@@H@Z
       1065  428 00033B40 ?GetOverviewCount@GDALDefaultOverviews@@QEAAHH@Z
       1066  429 000470B0 ?GetOverviewCount@GDALProxyRasterBand@@UEAAHXZ
       1067  42A 0004ABD0 ?GetOverviewCount@GDALRasterBand@@UEAAHXZ
       1068  42B 002DE240 ?GetOverviewCount@VRTRasterBand@@UEAAHXZ
       1069  42C 002E6020 ?GetOverviewCount@VRTWarpedRasterBand@@UEAAHXZ
       1070  42D 000B18F0 ?GetOwnsFP@RawRasterBand@@QEAAHXZ
       1071  42E 0002FCA0 ?GetPaletteInterpretation@GDALColorTable@@QEBA?AW4GDALPaletteInterp@@XZ
       1072  42F 00037880 ?GetPamFlags@GDALPamDataset@@QEAAHXZ
       1073  430 00037870 ?GetPamInfo@GDALPamDataset@@QEAAPEAVGDALDatasetPamInfo@@XZ
       1074  431 0023A740 ?GetPamInfo@GDALPamRasterBand@@QEAAPEAUGDALRasterBandPamInfo@@XZ
       1075  432 0043C290 ?GetParamDbl@OGRStyleBrush@@QEAANW4ogr_style_tool_param_brush_id@@AEAH@Z
       1076  433 0043C570 ?GetParamDbl@OGRStyleLabel@@QEAANW4ogr_style_tool_param_label_id@@AEAH@Z
       1077  434 0043C120 ?GetParamDbl@OGRStylePen@@QEAANW4ogr_style_tool_param_pen_id@@AEAH@Z
       1078  435 0043C400 ?GetParamDbl@OGRStyleSymbol@@QEAANW4ogr_style_tool_param_symbol_id@@AEAH@Z
       1079  436 0043BD20 ?GetParamDbl@OGRStyleTool@@QEAANAEBUogr_style_param@@AEAUogr_style_value@@AEAH@Z
       1080  437 0043D0C0 ?GetParamNum@OGRStyleBrush@@QEAAHW4ogr_style_tool_param_brush_id@@AEAH@Z
       1081  438 0043D180 ?GetParamNum@OGRStyleLabel@@QEAAHW4ogr_style_tool_param_label_id@@AEAH@Z
       1082  439 0043D060 ?GetParamNum@OGRStylePen@@QEAAHW4ogr_style_tool_param_pen_id@@AEAH@Z
       1083  43A 0043D120 ?GetParamNum@OGRStyleSymbol@@QEAAHW4ogr_style_tool_param_symbol_id@@AEAH@Z
       1084  43B 0043CC80 ?GetParamNum@OGRStyleTool@@QEAAHAEBUogr_style_param@@AEAUogr_style_value@@AEAH@Z
       1085  43C 0043C260 ?GetParamStr@OGRStyleBrush@@QEAAPEBDW4ogr_style_tool_param_brush_id@@AEAH@Z
       1086  43D 0043C540 ?GetParamStr@OGRStyleLabel@@QEAAPEBDW4ogr_style_tool_param_label_id@@AEAH@Z
       1087  43E 0043C0F0 ?GetParamStr@OGRStylePen@@QEAAPEBDW4ogr_style_tool_param_pen_id@@AEAH@Z
       1088  43F 0043C3D0 ?GetParamStr@OGRStyleSymbol@@QEAAPEBDW4ogr_style_tool_param_symbol_id@@AEAH@Z
       1089  440 0043BC10 ?GetParamStr@OGRStyleTool@@QEAAPEBDAEBUogr_style_param@@AEAUogr_style_value@@AEAH@Z
       1090  441 0043D220 ?GetPart@OGRStyleMgr@@QEAAPEAVOGRStyleTool@@HPEBD@Z
       1091  442 0043B2C0 ?GetPartCount@OGRStyleMgr@@QEAAHPEBD@Z
       1092  443 0001C3A0 ?GetPathOut@CPLODBCDriverInstaller@@QEBAPEBDXZ
       1093  444 0003F6B0 ?GetPhysicalFilename@GDALPamDataset@@IEAAPEBDXZ
       1094  445 002DB5C0 ?GetPixelFunction@VRTDerivedRasterBand@@SAP6A?AW4CPLErr@@PEAPEAXHPEAXHHW4GDALDataType@@2HH@ZPEBD@Z
       1095  446 000B1880 ?GetPixelOffset@RawRasterBand@@QEAAHXZ
       1096  447 0002EEB0 ?GetPixelSpace@GDALAsyncReader@@QEAAHXZ
       1097  448 002FDFF0 ?GetPrecision@GMLPropertyDefn@@QEAAHXZ
       1098  449 00076D60 ?GetPrecision@OGRFieldDefn@@QEAAHXZ
       1099  44A 0002EA60 ?GetPrecision@VFKPropertyDefn@@QEBAHXZ
       1100  44B 00362FB0 ?GetPreviousFeature@VFKDataBlock@@QEAAPEAVVFKFeature@@XZ
       1101  44C 00015480 ?GetPrimaryKeys@CPLODBCStatement@@QEAAHPEBD00@Z
       1102  44D 00443D20 ?GetPrimeMeridian@OGRSpatialReference@@QEBANPEAPEAD@Z
       1103  44E 0033B7D0 ?GetPrimitives@S57ClassRegistrar@@QEAAPEAPEADXZ
       1104  44F 00445260 ?GetProjParm@OGRSpatialReference@@QEBANPEBDNPEAH@Z
       1105  450 00097AC0 ?GetProjectionRef@AAIGDataset@@UEAAPEBDXZ
       1106  451 000A35F0 ?GetProjectionRef@AIGDataset@@UEAAPEBDXZ
       1107  452 00031110 ?GetProjectionRef@GDALDataset@@UEAAPEBDXZ
       1108  453 0003EA60 ?GetProjectionRef@GDALPamDataset@@UEAAPEBDXZ
       1109  454 00045A20 ?GetProjectionRef@GDALProxyDataset@@UEAAPEBDXZ
       1110  455 00048470 ?GetProjectionRef@GDALProxyPoolDataset@@UEAAPEBDXZ
       1111  456 00158360 ?GetProjectionRef@HFADataset@@UEAAPEBDXZ
       1112  457 001D7CA0 ?GetProjectionRef@KmlSuperOverlayDataset@@UEAAPEBDXZ
       1113  458 001E5E30 ?GetProjectionRef@MEMDataset@@UEAAPEBDXZ
       1114  459 002D9DB0 ?GetProjectionRef@VRTDataset@@UEAAPEBDXZ
       1115  45A 002E8080 ?GetProjectionRef@WCSDataset@@UEAAPEBDXZ
       1116  45B 0030FAC0 ?GetProperty@GMLFeature@@QEBAPEBUGMLProperty@@H@Z
       1117  45C 002FD640 ?GetProperty@GMLFeature@@QEBAPEBUGMLProperty@@PEBD@Z
       1118  45D 0030EB00 ?GetProperty@GMLFeatureClass@@QEBAPEAVGMLPropertyDefn@@H@Z
       1119  45E 002FD5A0 ?GetProperty@GMLFeatureClass@@QEBAPEAVGMLPropertyDefn@@PEBD@Z
       1120  45F 003610C0 ?GetProperty@VFKDataBlock@@QEBAPEAVVFKPropertyDefn@@H@Z
       1121  460 003FDE30 ?GetProperty@VFKFeature@@QEBAPEBVVFKProperty@@H@Z
       1122  461 003FDE80 ?GetProperty@VFKFeature@@QEBAPEBVVFKProperty@@PEBD@Z
       1123  462 0002EA60 ?GetPropertyCount@GMLFeatureClass@@QEBAHXZ
       1124  463 004BBA80 ?GetPropertyCount@VFKDataBlock@@QEBAHXZ
       1125  464 0030EB20 ?GetPropertyIndex@GMLFeatureClass@@QEBAHPEBD@Z
       1126  465 003611B0 ?GetPropertyIndex@VFKDataBlock@@QEBAHPEBD@Z
       1127  466 0043B750 ?GetRGBFromString@OGRStyleTool@@QEAAHPEBDAEAH111@Z
       1128  467 00030FD0 ?GetRasterBand@GDALDataset@@QEAAPEAVGDALRasterBand@@H@Z
       1129  468 000310A0 ?GetRasterCount@GDALDataset@@QEAAHXZ
       1130  469 00049D20 ?GetRasterDataType@GDALRasterBand@@QEAA?AW4GDALDataType@@XZ
       1131  46A 00048E30 ?GetRasterSampleOverview@GDALProxyPoolRasterBand@@UEAAPEAVGDALRasterBand@@H@Z
       1132  46B 00047190 ?GetRasterSampleOverview@GDALProxyRasterBand@@UEAAPEAVGDALRasterBand@@H@Z
       1133  46C 0004CFD0 ?GetRasterSampleOverview@GDALRasterBand@@UEAAPEAV1@H@Z
       1134  46D 00030F10 ?GetRasterXSize@GDALDataset@@QEAAHXZ
       1135  46E 00030F70 ?GetRasterYSize@GDALDataset@@QEAAHXZ
       1136  46F 00076F70 ?GetRawFieldRef@OGRFeature@@QEAAPEATOGRField@@H@Z
       1137  470 0033A190 ?GetReader@VFKDataBlock@@QEBAPEAVIVFKReader@@XZ
       1138  471 002F58A0 ?GetRefCount@OGRDataSource@@QEBAHXZ
       1139  472 002F3DC0 ?GetRefCount@OGRLayer@@QEBAHXZ
       1140  473 004BBA80 ?GetReferenceCount@OGRFeatureDefn@@QEAAHXZ
       1141  474 00076D90 ?GetReferenceCount@OGRSpatialReference@@QEBAHXZ
       1142  475 002F28B0 ?GetRegistrar@OGRSFDriverRegistrar@@SAPEAV1@XZ
       1143  476 00027940 ?GetRoot@OGRSpatialReference@@QEAAPEAVOGR_SRSNode@@XZ
       1144  477 00027940 ?GetRoot@OGRSpatialReference@@QEBAPEBVOGR_SRSNode@@XZ
       1145  478 00054AE0 ?GetRowCount@GDALRasterAttributeTable@@QEBAHXZ
       1146  479 00055840 ?GetRowOfValue@GDALRasterAttributeTable@@QEBAHH@Z
       1147  47A 000555C0 ?GetRowOfValue@GDALRasterAttributeTable@@QEBAHN@Z
       1148  47B 00429300 ?GetSRSName@GMLFeatureClass@@QEAAPEBDXZ
       1149  47C 004A8960 ?GetSWGExpr@OGRFeatureQuery@@QEAAPEAXXZ
       1150  47D 000422D0 ?GetScale@GDALPamRasterBand@@UEAANPEAH@Z
       1151  47E 000467B0 ?GetScale@GDALProxyRasterBand@@UEAANPEAH@Z
       1152  47F 0004AEA0 ?GetScale@GDALRasterBand@@UEAANPEAH@Z
       1153  480 001E5DA0 ?GetScale@MEMRasterBand@@UEAANPEAH@Z
       1154  481 002DDC10 ?GetScale@VRTRasterBand@@UEAANPEAH@Z
       1155  482 00444770 ?GetSemiMajor@OGRSpatialReference@@QEBANPEAH@Z
       1156  483 004449D0 ?GetSemiMinor@OGRSpatialReference@@QEBANPEAH@Z
       1157  484 00031490 ?GetShared@GDALDataset@@QEAAHXZ
       1158  485 00305CB0 ?GetSpatialFilter@OGRGenSQLResultsLayer@@UEAAPEAVOGRGeometry@@XZ
       1159  486 002F47F0 ?GetSpatialFilter@OGRLayer@@UEAAPEAVOGRGeometry@@XZ
       1160  487 00305900 ?GetSpatialRef@OGRGenSQLResultsLayer@@UEAAPEAVOGRSpatialReference@@XZ
       1161  488 004D4D50 ?GetSpatialRef@OGRLayer@@UEAAPEAVOGRSpatialReference@@XZ
       1162  489 0043B7B0 ?GetSpecificId@OGRStyleTool@@QEAAHPEBD0@Z
       1163  48A 003CDBB0 ?GetSrcElement@GMLPropertyDefn@@QEAAPEBDXZ
       1164  48B 004A8960 ?GetStatement@CPLODBCStatement@@QEAAPEAXXZ
       1165  48C 00046DA0 ?GetStatistics@GDALProxyRasterBand@@UEAA?AW4CPLErr@@HHPEAN000@Z
       1166  48D 0004B680 ?GetStatistics@GDALRasterBand@@UEAA?AW4CPLErr@@HHPEAN000@Z
       1167  48E 0043D1C0 ?GetStyleByName@OGRStyleMgr@@QEAAPEBDPEBD@Z
       1168  48F 0043EAE0 ?GetStyleName@OGRStyleMgr@@QEAAPEBDPEBD@Z
       1169  490 0043E650 ?GetStyleName@OGRStyleTable@@QEAAPEBDPEBD@Z
       1170  491 00466270 ?GetStyleString@OGRFeature@@UEAAPEBDXZ
       1171  492 0043E140 ?GetStyleString@OGRStyleBrush@@UEAAPEBDXZ
       1172  493 0043E240 ?GetStyleString@OGRStyleLabel@@UEAAPEBDXZ
       1173  494 0043E3D0 ?GetStyleString@OGRStyleMgr@@QEAAPEBDPEAVOGRFeature@@@Z
       1174  495 0043E0C0 ?GetStyleString@OGRStylePen@@UEAAPEBDXZ
       1175  496 0043E1C0 ?GetStyleString@OGRStyleSymbol@@UEAAPEBDXZ
       1176  497 0043DAB0 ?GetStyleString@OGRStyleTool@@QEAAPEBDPEBUogr_style_param@@PEAUogr_style_value@@H@Z
       1177  498 002F69F0 ?GetStyleTable@OGRDataSource@@UEAAPEAVOGRStyleTable@@XZ
       1178  499 0002EA70 ?GetStyleTable@OGRFeature@@UEAAPEAVOGRStyleTable@@XZ
       1179  49A 002F4F40 ?GetStyleTable@OGRLayer@@UEAAPEAVOGRStyleTable@@XZ
       1180  49B 0003F700 ?GetSubdatasetName@GDALPamDataset@@IEAAPEBDXZ
       1181  49C 002F5900 ?GetSummaryRefCount@OGRDataSource@@QEBAHXZ
       1182  49D 00446570 ?GetTOWGS84@OGRSpatialReference@@QEBAHPEANH@Z
       1183  49E 00015530 ?GetTables@CPLODBCStatement@@QEAAHPEBD0@Z
       1184  49F 000394C0 ?GetType@GDALJP2Box@@QEAAPEBDXZ
       1185  4A0 004BBA80 ?GetType@GMLPropertyDefn@@QEBA?AW4GMLPropertyType@@XZ
       1186  4A1 004BBA80 ?GetType@OGRFieldDefn@@QEAA?AW4OGRFieldType@@XZ
       1187  4A2 0043B860 ?GetType@OGRStyleTool@@QEAA?AW4ogr_style_tool_class_id@@XZ
       1188  4A3 002FDFF0 ?GetType@VFKPropertyDefn@@QEBA?AW4OGRFieldType@@XZ
       1189  4A4 000142F0 ?GetTypeMapping@CPLODBCStatement@@SAFF@Z
       1190  4A5 000156A0 ?GetTypeName@CPLODBCStatement@@SA?AVCPLString@@H@Z
       1191  4A6 00054DC0 ?GetTypeOfCol@GDALRasterAttributeTable@@QEBA?AW4GDALRATFieldType@@H@Z
       1192  4A7 0044B130 ?GetUTMZone@OGRSpatialReference@@QEBAHPEAH@Z
       1193  4A8 000394D0 ?GetUUID@GDALJP2Box@@QEAAPEBEXZ
       1194  4A9 0002EA60 ?GetUnit@OGRStyleTool@@QEAA?AW4ogr_style_tool_units_id@@XZ
       1195  4AA 00042370 ?GetUnitType@GDALPamRasterBand@@UEAAPEBDXZ
       1196  4AB 00048CF0 ?GetUnitType@GDALProxyPoolRasterBand@@UEAAPEBDXZ
       1197  4AC 00046840 ?GetUnitType@GDALProxyRasterBand@@UEAAPEBDXZ
       1198  4AD 0004AFA0 ?GetUnitType@GDALRasterBand@@UEAAPEBDXZ
       1199  4AE 001E5CE0 ?GetUnitType@MEMRasterBand@@UEAAPEBDXZ
       1200  4AF 002DDB40 ?GetUnitType@VRTRasterBand@@UEAAPEBDXZ
       1201  4B0 00013620 ?GetUsageCount@CPLODBCDriverInstaller@@QEBAHXZ
       1202  4B1 00054CF0 ?GetUsageOfCol@GDALRasterAttributeTable@@QEBA?AW4GDALRATFieldUsage@@H@Z
       1203  4B2 004810D0 ?GetUsedFields@OGRFeatureQuery@@QEAAPEAPEADXZ
       1204  4B3 00076270 ?GetValue@OGR_SRSNode@@QEBAPEBDXZ
       1205  4B4 00055490 ?GetValueAsDouble@GDALRasterAttributeTable@@QEBANHH@Z
       1206  4B5 00055360 ?GetValueAsInt@GDALRasterAttributeTable@@QEBAHHH@Z
       1207  4B6 00055210 ?GetValueAsString@GDALRasterAttributeTable@@QEBAPEBDHH@Z
       1208  4B7 002FDFE0 ?GetValueD@VFKProperty@@QEBANXZ
       1209  4B8 00303400 ?GetValueI@VFKProperty@@QEBAHXZ
       1210  4B9 002FE250 ?GetValueS@VFKProperty@@QEBAPEBDXZ
       1211  4BA 000762B0 ?GetWidth@GMLPropertyDefn@@QEAAHXZ
       1212  4BB 002FDFF0 ?GetWidth@OGRFieldDefn@@QEAAHXZ
       1213  4BC 00076D60 ?GetWidth@VFKPropertyDefn@@QEBAHXZ
       1214  4BD 0033A190 ?GetWritableData@GDALJP2Box@@QEAAPEBEXZ
       1215  4BE 00076D60 ?GetXOff@GDALRasterBlock@@QEAAHXZ
       1216  4BF 002FDFF0 ?GetXOffset@GDALAsyncReader@@QEAAHXZ
       1217  4C0 0002EA60 ?GetXSize@GDALAsyncReader@@QEAAHXZ
       1218  4C1 0004B090 ?GetXSize@GDALRasterBand@@QEAAHXZ
       1219  4C2 0002EE80 ?GetXSize@GDALRasterBlock@@QEAAHXZ
       1220  4C3 0002EA60 ?GetYOff@GDALRasterBlock@@QEAAHXZ
       1221  4C4 00076D60 ?GetYOffset@GDALAsyncReader@@QEAAHXZ
       1222  4C5 0002EE80 ?GetYSize@GDALAsyncReader@@QEAAHXZ
       1223  4C6 0004B0F0 ?GetYSize@GDALRasterBand@@QEAAHXZ
       1224  4C7 002FD590 ?GetYSize@GDALRasterBlock@@QEAAHXZ
       1225  4C8 000979B0 ?Getc@AAIGDataset@@AEAADXZ
       1226  4C9 00047040 ?HasArbitraryOverviews@GDALProxyRasterBand@@UEAAHXZ
       1227  4CA 0004AB70 ?HasArbitraryOverviews@GDALRasterBand@@UEAAHXZ
       1228  4CB 000343E0 ?HaveMaskFile@GDALDefaultOverviews@@QEAAHPEAPEADPEBD@Z
       1229  4CC 00031920 ?IBuildOverviews@GDALDataset@@MEAA?AW4CPLErr@@PEBDHPEAHH1P6AHN0PEAX@Z2@Z
       1230  4CD 0003FAD0 ?IBuildOverviews@GDALPamDataset@@UEAA?AW4CPLErr@@PEBDHPEAHH1P6AHN0PEAX@Z2@Z
       1231  4CE 00045720 ?IBuildOverviews@GDALProxyDataset@@MEAA?AW4CPLErr@@PEBDHPEAHH1P6AHN0PEAX@Z2@Z
       1232  4CF 001581A0 ?IBuildOverviews@HFADataset@@UEAA?AW4CPLErr@@PEBDHPEAHH1P6AHN0PEAX@Z2@Z
       1233  4D0 002E66D0 ?IBuildOverviews@VRTWarpedDataset@@UEAA?AW4CPLErr@@PEBDHPEAHH1P6AHN0PEAX@Z2@Z
       1234  4D1 000319D0 ?IRasterIO@GDALDataset@@MEAA?AW4CPLErr@@W4GDALRWFlag@@HHHHPEAXHHW4GDALDataType@@HPEAHHHH@Z
       1235  4D2 00045600 ?IRasterIO@GDALProxyDataset@@MEAA?AW4CPLErr@@W4GDALRWFlag@@HHHHPEAXHHW4GDALDataType@@HPEAHHHH@Z
       1236  4D3 000461F0 ?IRasterIO@GDALProxyRasterBand@@MEAA?AW4CPLErr@@W4GDALRWFlag@@HHHHPEAXHHW4GDALDataType@@HH@Z
       1237  4D4 00065710 ?IRasterIO@GDALRasterBand@@MEAA?AW4CPLErr@@W4GDALRWFlag@@HHHHPEAXHHW4GDALDataType@@HH@Z
       1238  4D5 00158520 ?IRasterIO@HFADataset@@MEAA?AW4CPLErr@@W4GDALRWFlag@@HHHHPEAXHHW4GDALDataType@@HPEAHHHH@Z
       1239  4D6 00264EC0 ?IRasterIO@RawDataset@@MEAA?AW4CPLErr@@W4GDALRWFlag@@HHHHPEAXHHW4GDALDataType@@HPEAHHHH@Z
       1240  4D7 00265AC0 ?IRasterIO@RawRasterBand@@MEAA?AW4CPLErr@@W4GDALRWFlag@@HHHHPEAXHHW4GDALDataType@@HH@Z
       1241  4D8 002DB690 ?IRasterIO@VRTDerivedRasterBand@@UEAA?AW4CPLErr@@W4GDALRWFlag@@HHHHPEAXHHW4GDALDataType@@HH@Z
       1242  4D9 002DF960 ?IRasterIO@VRTRawRasterBand@@UEAA?AW4CPLErr@@W4GDALRWFlag@@HHHHPEAXHHW4GDALDataType@@HH@Z
       1243  4DA 002E03F0 ?IRasterIO@VRTSourcedRasterBand@@UEAA?AW4CPLErr@@W4GDALRWFlag@@HHHHPEAXHHW4GDALDataType@@HH@Z
       1244  4DB 002EC350 ?IRasterIO@WCSDataset@@EEAA?AW4CPLErr@@W4GDALRWFlag@@HHHHPEAXHHW4GDALDataType@@HPEAHHHH@Z
       1245  4DC 0002F0C0 ?IReadBlock@GDALAllValidMaskBand@@MEAA?AW4CPLErr@@HHPEAX@Z
       1246  4DD 0003D160 ?IReadBlock@GDALNoDataMaskBand@@MEAA?AW4CPLErr@@HHPEAX@Z
       1247  4DE 0003D760 ?IReadBlock@GDALNoDataValuesMaskBand@@MEAA?AW4CPLErr@@HHPEAX@Z
       1248  4DF 000460B0 ?IReadBlock@GDALProxyRasterBand@@MEAA?AW4CPLErr@@HHPEAX@Z
       1249  4E0 001E59F0 ?IReadBlock@MEMRasterBand@@UEAA?AW4CPLErr@@HHPEAX@Z
       1250  4E1 00265580 ?IReadBlock@RawRasterBand@@UEAA?AW4CPLErr@@HHPEAX@Z
       1251  4E2 002DFB10 ?IReadBlock@VRTRawRasterBand@@UEAA?AW4CPLErr@@HHPEAX@Z
       1252  4E3 002E07B0 ?IReadBlock@VRTSourcedRasterBand@@UEAA?AW4CPLErr@@HHPEAX@Z
       1253  4E4 002E5EB0 ?IReadBlock@VRTWarpedRasterBand@@UEAA?AW4CPLErr@@HHPEAX@Z
       1254  4E5 00046150 ?IWriteBlock@GDALProxyRasterBand@@MEAA?AW4CPLErr@@HHPEAX@Z
       1255  4E6 00049CE0 ?IWriteBlock@GDALRasterBand@@MEAA?AW4CPLErr@@HHPEAX@Z
       1256  4E7 001E5AE0 ?IWriteBlock@MEMRasterBand@@UEAA?AW4CPLErr@@HHPEAX@Z
       1257  4E8 00265620 ?IWriteBlock@RawRasterBand@@UEAA?AW4CPLErr@@HHPEAX@Z
       1258  4E9 002DFB50 ?IWriteBlock@VRTRawRasterBand@@UEAA?AW4CPLErr@@HHPEAX@Z
       1259  4EA 002E5F50 ?IWriteBlock@VRTWarpedRasterBand@@UEAA?AW4CPLErr@@HHPEAX@Z
       1260  4EB 000765D0 ?Id@OGRStyleBrush@@QEAAPEBDAEAH@Z
       1261  4EC 00076420 ?Id@OGRStylePen@@QEAAPEBDAEAH@Z
       1262  4ED 000767A0 ?Id@OGRStyleSymbol@@QEAAPEBDAEAH@Z
       1263  4EE 00158320 ?Identify@HFADataset@@SAHPEAVGDALOpenInfo@@@Z
       1264  4EF 002CFDB0 ?Identify@TILDataset@@SAHPEAVGDALOpenInfo@@@Z
       1265  4F0 002D9ED0 ?Identify@VRTDataset@@SAHPEAVGDALOpenInfo@@@Z
       1266  4F1 003C88F0 ?Ingest@S57Reader@@QEAAHXZ
       1267  4F2 00048950 ?Init@GDALProxyPoolRasterBand@@AEAAXXZ
       1268  4F3 00049E50 ?InitBlockInfo@GDALRasterBand@@IEAAHXZ
       1269  4F4 0043E260 ?InitFromFeature@OGRStyleMgr@@QEAAPEBDPEAVOGRFeature@@@Z
       1270  4F5 0043D4D0 ?InitStyleString@OGRStyleMgr@@QEAAHPEBD@Z
       1271  4F6 00033A90 ?Initialize@GDALDefaultOverviews@@QEAAXPEAVGDALDataset@@PEBDPEAPEADH@Z
       1272  4F7 00089F40 ?Initialize@GDALWarpOperation@@QEAA?AW4CPLErr@@PEBUGDALWarpOptions@@@Z
       1273  4F8 00485000 ?Initialize@OGRFieldDefn@@AEAAXPEBDW4OGRFieldType@@@Z
       1274  4F9 00264AC0 ?Initialize@RawRasterBand@@IEAAXXZ
       1275  4FA 002DD890 ?Initialize@VRTRasterBand@@IEAAXHH@Z
       1276  4FB 002E03B0 ?Initialize@VRTSourcedRasterBand@@AEAAXHH@Z
       1277  4FC 002E4FE0 ?Initialize@VRTWarpedDataset@@QEAA?AW4CPLErr@@PEAX@Z
       1278  4FD 00056C60 ?InitializeFromColorTable@GDALRasterAttributeTable@@QEAA?AW4CPLErr@@PEBVGDALColorTable@@@Z
       1279  4FE 0030F3C0 ?InitializeFromXML@GMLFeatureClass@@QEAAHPEAUCPLXMLNode@@@Z
       1280  4FF 002F4D00 ?InitializeIndexSupport@OGRLayer@@QEAAHPEBD@Z
       1281  500 0044D860 ?InsertChild@OGR_SRSNode@@QEAAXPEAV1@H@Z
       1282  501 00013740 ?InstallDriver@CPLODBCDriverInstaller@@QEAAHPEBD0G@Z
       1283  502 002F4A00 ?InstallFilter@OGRLayer@@IEAAHPEAVOGRGeometry@@@Z
       1284  503 0001C9A0 ?InstallHandler@VSIFileManager@@SAXAEBV?$basic_string@DU?$char_traits@D@std@@V?$allocator@D@2@@std@@PEAVVSIFilesystemHandler@@@Z
       1285  504 0004F710 ?Internalize@GDALRasterBlock@@QEAA?AW4CPLErr@@XZ
       1286  505 00035A10 ?Intersect@OGREnvelope@@QEAAXAEBV1@@Z
       1287  506 0044EE50 ?Intersect@OGRGeometry@@QEBAHPEAV1@@Z
       1288  507 004501A0 ?Intersection@OGRGeometry@@UEBAPEAV1@PEBV1@@Z
       1289  508 00035950 ?Intersects@OGREnvelope@@QEBAHAEBV1@@Z
       1290  509 0044ED00 ?Intersects@OGRGeometry@@UEBAHPEAV1@@Z
       1291  50A 0043EBA0 ?IsAliasFor@OGRSpatialReference@@CAHPEBD0@Z
       1292  50B 004466C0 ?IsAngularParameter@OGRSpatialReference@@SAHPEBD@Z
       1293  50C 004B8E10 ?IsCaseSensitive@VSIFilesystemHandler@@UEAAHPEBD@Z
       1294  50D 00457900 ?IsEmpty@OGRGeometryCollection@@UEBAHXZ
       1295  50E 00453680 ?IsEmpty@OGRLineString@@UEBAHXZ
       1296  50F 00451890 ?IsEmpty@OGRPoint@@UEBAHXZ
       1297  510 004564F0 ?IsEmpty@OGRPolygon@@UEBAHXZ
       1298  511 0043B590 ?IsExist@OGRStyleTable@@QEAAHPEBD@Z
       1299  512 00463C80 ?IsFieldSet@OGRFeature@@QEBAHH@Z
       1300  513 00445A90 ?IsGeographic@OGRSpatialReference@@QEBAHXZ
       1301  514 00076D90 ?IsGeometryIgnored@OGRFeatureDefn@@QEAAHXZ
       1302  515 00076D90 ?IsIgnored@OGRFieldDefn@@QEAAHXZ
       1303  516 00013670 ?IsInTransaction@CPLODBCSession@@QEAAHXZ
       1304  517 000357B0 ?IsInit@OGREnvelope@@QEBAHXZ
       1305  518 000343B0 ?IsInitialized@GDALDefaultOverviews@@QEAAHXZ
       1306  519 00038620 ?IsLeafNode@OGR_SRSNode@@QEBAHXZ
       1307  51A 00264C40 ?IsLineLoaded@RawRasterBand@@IEAAHHH@Z
       1308  51B 004467C0 ?IsLinearParameter@OGRSpatialReference@@SAHPEBD@Z
       1309  51C 00445C50 ?IsLocal@OGRSpatialReference@@QEBAHXZ
       1310  51D 00446770 ?IsLongitudeParameter@OGRSpatialReference@@SAHPEBD@Z
       1311  51E 002FDFD0 ?IsNull@VFKProperty@@QEBA_NXZ
       1312  51F 004562E0 ?IsPointOnSurface@OGRPolygon@@QEBAHPEBVOGRPoint@@@Z
       1313  520 00445950 ?IsProjected@OGRSpatialReference@@QEBAHXZ
       1314  521 0044F7C0 ?IsRing@OGRGeometry@@UEBAHXZ
       1315  522 0044C0D0 ?IsSame@OGRSpatialReference@@QEBAHPEBV1@@Z
       1316  523 0044B7B0 ?IsSameGeogCS@OGRSpatialReference@@QEBAHPEBV1@@Z
       1317  524 00445E40 ?IsSameVertCS@OGRSpatialReference@@QEBAHPEBV1@@Z
       1318  525 00076D90 ?IsSchemaLocked@GMLFeatureClass@@QEBAHXZ
       1319  526 0044F720 ?IsSimple@OGRGeometry@@UEBAHXZ
       1320  527 00076E10 ?IsStyleIgnored@OGRFeatureDefn@@QEAAHXZ
       1321  528 004BBA80 ?IsStyleModified@OGRStyleTool@@QEAAHXZ
       1322  529 000762B0 ?IsStyleParsed@OGRStyleTool@@QEAAHXZ
       1323  52A 00039780 ?IsSuperBox@GDALJP2Box@@QEAAHXZ
       1324  52B 0044F680 ?IsValid@OGRGeometry@@UEBAHXZ
       1325  52C 00445D00 ?IsVertical@OGRSpatialReference@@QEBAHXZ
       1326  52D 00076B70 ?Italic@OGRStyleLabel@@QEAAHAEAH@Z
       1327  52E 00076480 ?Join@OGRStylePen@@QEAAPEBDAEAH@Z
       1328  52F 00362000 ?LoadGeometry@VFKDataBlock@@QEAAJXZ
       1329  530 003FDEF0 ?LoadGeometry@VFKFeature@@QEAA_NXZ
       1330  531 0033AF10 ?LoadInfo@S57ClassRegistrar@@QEAAHPEBD0H@Z
       1331  532 0043B450 ?LoadStyleTable@OGRStyleTable@@QEAAHPEBD@Z
       1332  533 00033680 ?LockBuffer@GDALAsyncReader@@UEAAHN@Z
       1333  534 002FA150 ?MITABCoordSys2SpatialRef@@YAPEAVOGRSpatialReference@@PEBD@Z
       1334  535 002FB8A0 ?MITABSpatialRef2CoordSys@@YAPEADPEAVOGRSpatialReference@@@Z
       1335  536 00451B10 ?Make2D@OGRLineString@@IEAAXXZ
       1336  537 00451B50 ?Make3D@OGRLineString@@IEAAXXZ
       1337  538 003C93E0 ?MakeRecord@S57Writer@@QEAAPEAVDDFRecord@@XZ
       1338  539 0044DF00 ?MakeValueSafe@OGR_SRSNode@@QEAAXXZ
       1339  53A 000314A0 ?MarkAsShared@GDALDataset@@QEAAXXZ
       1340  53B 0004F470 ?MarkClean@GDALRasterBlock@@QEAAXXZ
       1341  53C 0004F460 ?MarkDirty@GDALRasterBlock@@QEAAXXZ
       1342  53D 00037860 ?MarkPamDirty@GDALPamDataset@@QEAAXXZ
       1343  53E 000357F0 ?Merge@OGREnvelope@@QEAAXAEBV1@@Z
       1344  53F 000358B0 ?Merge@OGREnvelope@@QEAAXNN@Z
       1345  540 0030ED90 ?MergeSRSName@GMLFeatureClass@@QEAAXPEBD@Z
       1346  541 0001C440 ?Mkdir@VSIFilesystemHandler@@UEAAHPEBDJ@Z
       1347  542 0043D9D0 ?ModifyStyle@OGRStyleTable@@QEAAHPEBD0@Z
       1348  543 0044D9B0 ?NeedsQuoting@OGR_SRSNode@@AEBAHXZ
       1349  544 003033A0 ?NextClass@S57ClassRegistrar@@QEAAHXZ
       1350  545 003C3270 ?NextPendingMultiPoint@S57Reader@@AEAAPEAVOGRFeature@@XZ
       1351  546 00076900 ?OColor@OGRStyleSymbol@@QEAAPEBDAEAH@Z
       1352  547 00442840 ?OGRCreateCoordinateTransformation@@YAPEAVOGRCoordinateTransformation@@PEAVOGRSpatialReference@@0@Z
       1353  548 00304B70 ?OGRCreateDefaultLayerIndex@@YAPEAVOGRLayerAttrIndex@@XZ
       1354  549 00485720 ?OGRCreateExpatXMLParser@@YAPEAUXML_ParserStruct@@XZ
       1355  54A 0044F860 ?OGRFromOGCGeomType@@YA?AW4OGRwkbGeometryType@@PEBD@Z
       1356  54B 0047FA10 ?OGRGeneralCmdLineProcessor@@YAHHPEAPEAPEADH@Z
       1357  54C 0047F3A0 ?OGRGetDayOfWeek@@YAHHHH@Z
       1358  54D 0047F470 ?OGRGetRFC822DateTime@@YAPEADHHHHHHH@Z
       1359  54E 0047F600 ?OGRGetXMLDateTime@@YAPEADHHHHHHH@Z
       1360  54F 0047F700 ?OGRGetXML_UTF8_EscapedString@@YAPEADPEBD@Z
       1361  550 0047E210 ?OGRMakeWktCoordinate@@YAXPEADNNNH@Z
       1362  551 0047EFC0 ?OGRParseRFC822DateTime@@YAHPEBDPEAH111111@Z
       1363  552 0047EDC0 ?OGRParseXMLDateTime@@YAHPEBDPEAH1111PEAM1@Z
       1364  553 0044F950 ?OGRToOGCGeomType@@YAPEBDW4OGRwkbGeometryType@@@Z
       1365  554 0047E510 ?OGRWktReadPoints@@YAPEBDPEBDPEAPEAVOGRRawPoint@@PEAPEANPEAH3@Z
       1366  555 0047E470 ?OGRWktReadToken@@YAPEBDPEBDPEAD@Z
       1367  556 0046BC30 ?OSRGetEllipsoidInfo@@YAHHPEAPEADPEAN1@Z
       1368  557 00076880 ?Offset@OGRStyleSymbol@@QEAANAEAH@Z
       1369  558 00098BB0 ?Open@AAIGDataset@@SAPEAVGDALDataset@@PEAVGDALOpenInfo@@@Z
       1370  559 000A43E0 ?Open@AIGDataset@@SAPEAVGDALDataset@@PEAVGDALOpenInfo@@@Z
       1371  55A 0015D7E0 ?Open@HFADataset@@SAPEAVGDALDataset@@PEAVGDALOpenInfo@@@Z
       1372  55B 001D7CB0 ?Open@KmlSuperOverlayDataset@@SAPEAVGDALDataset@@PEAVGDALOpenInfo@@@Z
       1373  55C 001E6490 ?Open@MEMDataset@@SAPEAVGDALDataset@@PEAVGDALOpenInfo@@@Z
       1374  55D 002F2940 ?Open@OGRSFDriverRegistrar@@SAPEAVOGRDataSource@@PEBDHPEAPEAVOGRSFDriver@@@Z
       1375  55E 003C5FF0 ?Open@S57Reader@@QEAAHH@Z
       1376  55F 002CFF30 ?Open@TILDataset@@SAPEAVGDALDataset@@PEAVGDALOpenInfo@@@Z
       1377  560 002DB160 ?Open@VRTDataset@@SAPEAVGDALDataset@@PEAVGDALOpenInfo@@@Z
       1378  561 002EBD30 ?Open@WCSDataset@@SAPEAVGDALDataset@@PEAVGDALOpenInfo@@@Z
       1379  562 002F2B20 ?OpenShared@OGRSFDriverRegistrar@@QEAAPEAVOGRDataSource@@PEBDHPEAPEAVOGRSFDriver@@@Z
       1380  563 002D9F30 ?OpenXML@VRTDataset@@SAPEAVGDALDataset@@PEBD0W4GDALAccess@@@Z
       1381  564 00076C60 ?OutlineColor@OGRStyleLabel@@QEAAPEBDAEAH@Z
       1382  565 00450AD0 ?Overlaps@OGRGeometry@@UEBAHPEBV1@@Z
       1383  566 00061960 ?OverviewRasterIO@GDALRasterBand@@IEAA?AW4CPLErr@@W4GDALRWFlag@@HHHHPEAXHHW4GDALDataType@@HH@Z
       1384  567 00033D90 ?OverviewScan@GDALDefaultOverviews@@AEAAXXZ
       1385  568 00041790 ?PamAllocateProxy@@YAPEBDPEBD@Z
       1386  569 00041590 ?PamCleanProxyDB@@YAXXZ
       1387  56A 0003FED0 ?PamClear@GDALPamDataset@@IEAAXXZ
       1388  56B 00042C50 ?PamClear@GDALPamRasterBand@@IEAAXXZ
       1389  56C 00042890 ?PamFindMatchingHistogram@@YAPEAUCPLXMLNode@@PEAU1@NNHHH@Z
       1390  56D 00041640 ?PamGetProxy@@YAPEBDPEBD@Z
       1391  56E 00043DD0 ?PamHistogramToXMLTree@@YAPEAUCPLXMLNode@@NNHPEAHHH@Z
       1392  56F 0003F530 ?PamInitialize@GDALPamDataset@@IEAAXXZ
       1393  570 00041FF0 ?PamInitialize@GDALPamRasterBand@@IEAAXXZ
       1394  571 00042730 ?PamParseHistogram@@YAHPEAUCPLXMLNode@@PEAN1PEAHPEAPEAH22@Z
       1395  572 0043D0A0 ?Parse@OGRStyleBrush@@EEAAHXZ
       1396  573 0043D160 ?Parse@OGRStyleLabel@@EEAAHXZ
       1397  574 0043D040 ?Parse@OGRStylePen@@EEAAHXZ
       1398  575 0043D100 ?Parse@OGRStyleSymbol@@EEAAHXZ
       1399  576 0043C8D0 ?Parse@OGRStyleTool@@IEAAHPEBUogr_style_param@@PEAUogr_style_value@@H@Z
       1400  577 0003A9C0 ?ParseGMLCoverageDesc@GDALJP2Metadata@@QEAAHXZ
       1401  578 0003A590 ?ParseJP2GeoTIFF@GDALJP2Metadata@@QEAAHXZ
       1402  579 0003A6A0 ?ParseMSIG@GDALJP2Metadata@@QEAAHXZ
       1403  57A 003C52E0 ?ParseName@S57Reader@@AEAAHPEAVDDFField@@HPEAH@Z
       1404  57B 00076400 ?Pattern@OGRStylePen@@QEAAPEBDAEAH@Z
       1405  57C 00089670 ?PerformWarp@GDALWarpKernel@@QEAA?AW4CPLErr@@XZ
       1406  57D 00076B30 ?Perp@OGRStyleLabel@@QEAANAEAH@Z
       1407  57E 000768A0 ?Perp@OGRStyleSymbol@@QEAANAEAH@Z
       1408  57F 00076440 ?PerpendicularOffset@OGRStylePen@@QEAANAEAH@Z
       1409  580 00076AB0 ?Placement@OGRStyleLabel@@QEAAPEBDAEAH@Z
       1410  581 00455EC0 ?PointOnSurface@OGRPolygon@@UEBAHPEAVOGRPoint@@@Z
       1411  582 00305A10 ?PrepareSummary@OGRGenSQLResultsLayer@@AEAAHXZ
       1412  583 0043B540 ?Print@OGRStyleTable@@QEAAXPEAU_iobuf@@@Z
       1413  584 000058D0 ?Printf@CPLString@@QEAAAEAV1@PEBDZZ
       1414  585 00076670 ?Priority@OGRStyleBrush@@QEAAHAEAH@Z
       1415  586 00076BB0 ?Priority@OGRStyleLabel@@QEAAHAEAH@Z
       1416  587 000764A0 ?Priority@OGRStylePen@@QEAAHAEAH@Z
       1417  588 000768C0 ?Priority@OGRStyleSymbol@@QEAAHAEAH@Z
       1418  589 002E5960 ?ProcessBlock@VRTWarpedDataset@@QEAA?AW4CPLErr@@HH@Z
       1419  58A 002E8170 ?ProcessError@WCSDataset@@AEAAHPEAUCPLHTTPResult@@@Z
       1420  58B 002F60D0 ?ProcessSQLCreateIndex@OGRDataSource@@IEAAHPEBD@Z
       1421  58C 002F6370 ?ProcessSQLDropIndex@OGRDataSource@@IEAAHPEBD@Z
       1422  58D 00036B50 ?QuietDelete@GDALDriver@@SA?AW4CPLErr@@PEBD@Z
       1423  58E 00031C00 ?RasterIO@GDALDataset@@QEAA?AW4CPLErr@@W4GDALRWFlag@@HHHHPEAXHHW4GDALDataType@@HPEAHHHH@Z
       1424  58F 00049970 ?RasterIO@GDALRasterBand@@QEAA?AW4CPLErr@@W4GDALRWFlag@@HHHHPEAXHHW4GDALDataType@@HH@Z
       1425  590 00030D60 ?RasterInitialize@GDALDataset@@IEAAXHH@Z
       1426  591 00264CE0 ?Read@RawRasterBand@@IEAA_KPEAX_K1@Z
       1427  592 0003BB50 ?ReadAndParse@GDALJP2Metadata@@QEAAHPEBD@Z
       1428  593 0004C610 ?ReadBlock@GDALRasterBand@@QEAA?AW4CPLErr@@HHPEAX@Z
       1429  594 000395C0 ?ReadBox@GDALJP2Box@@QEAAHXZ
       1430  595 00039F30 ?ReadBoxData@GDALJP2Box@@QEAAPEAEXZ
       1431  596 0003B010 ?ReadBoxes@GDALJP2Metadata@@QEAAHPEAU_iobuf@@@Z
       1432  597 003C3D00 ?ReadDSID@S57Reader@@QEAAPEAVOGRFeature@@XZ
       1433  598 004D4D50 ?ReadDir@VSIFilesystemHandler@@UEAAPEAPEADPEBD@Z
       1434  599 003C8350 ?ReadFeature@S57Reader@@QEAAPEAVOGRFeature@@HPEAVOGRFeatureDefn@@@Z
       1435  59A 00039D70 ?ReadFirst@GDALJP2Box@@QEAAHXZ
       1436  59B 00039E10 ?ReadFirstChild@GDALJP2Box@@QEAAHPEAV1@@Z
       1437  59C 0033AED0 ?ReadLine@S57ClassRegistrar@@AEAAPEBDPEAU_iobuf@@@Z
       1438  59D 00039DC0 ?ReadNext@GDALJP2Box@@QEAAHXZ
       1439  59E 00039EC0 ?ReadNextChild@GDALJP2Box@@QEAAHPEAV1@@Z
       1440  59F 003C8CE0 ?ReadNextFeature@S57Reader@@QEAAPEAVOGRFeature@@PEAVOGRFeatureDefn@@@Z
       1441  5A0 00157F50 ?ReadProjection@HFADataset@@AEAA?AW4CPLErr@@XZ
       1442  5A1 000A39B0 ?ReadRAT@AIGDataset@@AEAAXXZ
       1443  5A2 003C6530 ?ReadVector@S57Reader@@QEAAPEAVOGRFeature@@HH@Z
       1444  5A3 000055B0 ?Recode@CPLString@@QEAAAEAV1@PEBD0@Z
       1445  5A4 00048340 ?RefUnderlyingDataset@GDALProxyPoolDataset@@MEAAPEAVGDALDataset@@XZ
       1446  5A5 00048990 ?RefUnderlyingRasterBand@GDALProxyPoolRasterBand@@MEAAPEAVGDALRasterBand@@XZ
       1447  5A6 000313D0 ?Reference@GDALDataset@@QEAAHXZ
       1448  5A7 002F57E0 ?Reference@OGRDataSource@@QEAAHXZ
       1449  5A8 00076DF0 ?Reference@OGRFeatureDefn@@QEAAHXZ
       1450  5A9 002F3D00 ?Reference@OGRLayer@@QEAAHXZ
       1451  5AA 00442BA0 ?Reference@OGRSpatialReference@@QEAAHXZ
       1452  5AB 00038310 ?RegisterDriver@GDALDriverManager@@QEAAHPEAVGDALDriver@@@Z
       1453  5AC 002F3240 ?RegisterDriver@OGRSFDriverRegistrar@@QEAAXPEAVOGRSFDriver@@@Z
       1454  5AD 002F57B0 ?Release@OGRDataSource@@QEAAHXZ
       1455  5AE 0046A950 ?Release@OGRFeatureDefn@@QEAAXXZ
       1456  5AF 00442CD0 ?Release@OGRSpatialReference@@QEAAXXZ
       1457  5B0 002F2EA0 ?ReleaseDataSource@OGRSFDriverRegistrar@@QEAAHPEAVOGRDataSource@@@Z
       1458  5B1 002F6690 ?ReleaseResultSet@OGRDataSource@@UEAAXPEAVOGRLayer@@@Z
       1459  5B2 004664C0 ?RemapFields@OGRFeature@@QEAAHPEAVOGRFeatureDefn@@PEAH@Z
       1460  5B3 000138B0 ?RemoveDriver@CPLODBCDriverInstaller@@QEAAHPEBDH@Z
       1461  5B4 0041EA40 ?RemoveRecord@DDFRecordIndex@@QEAAHH@Z
       1462  5B5 0043C710 ?RemoveStyle@OGRStyleTable@@QEAAHPEBD@Z
       1463  5B6 00036060 ?Rename@GDALDriver@@QEAA?AW4CPLErr@@PEBD0@Z
       1464  5B7 0015DB50 ?Rename@HFADataset@@SA?AW4CPLErr@@PEBD0@Z
       1465  5B8 0001C440 ?Rename@VSIFilesystemHandler@@UEAAHPEBD0@Z
       1466  5B9 0008AD40 ?ReportTiming@GDALWarpOperation@@AEAAXPEBD@Z
       1467  5BA 00305830 ?ResetReading@OGRGenSQLResultsLayer@@UEAAXXZ
       1468  5BB 00361190 ?ResetReading@VFKDataBlock@@QEAAXH@Z
       1469  5BC 0043B640 ?ResetStyleStringReading@OGRStyleTable@@QEAAXXZ
       1470  5BD 00303390 ?Rewind@S57ClassRegistrar@@QEAAHXZ
       1471  5BE 003C35E0 ?Rewind@S57Reader@@QEAAXXZ
       1472  5BF 0001C440 ?Rmdir@VSIFilesystemHandler@@UEAAHPEBD@Z
       1473  5C0 000139D0 ?RollbackTransaction@CPLODBCSession@@QEAAHXZ
       1474  5C1 002F4680 ?RollbackTransaction@OGRLayer@@UEAAHXZ
       1475  5C2 003CC060 ?S57GenerateDSIDFeatureDefn@@YAPEAVOGRFeatureDefn@@XZ
       1476  5C3 003CCEC0 ?S57GenerateGeomFeatureDefn@@YAPEAVOGRFeatureDefn@@W4OGRwkbGeometryType@@H@Z
       1477  5C4 003CD020 ?S57GenerateObjectClassDefn@@YAPEAVOGRFeatureDefn@@PEAVS57ClassRegistrar@@HH@Z
       1478  5C5 003CCB80 ?S57GenerateStandardAttributes@@YAXPEAVOGRFeatureDefn@@H@Z
       1479  5C6 003CC750 ?S57GenerateVectorPrimitiveFeatureDefn@@YAPEAVOGRFeatureDefn@@HH@Z
       1480  5C7 0004F480 ?SafeLockBlock@GDALRasterBlock@@SAHPEAPEAV1@@Z
       1481  5C8 0043B3B0 ?SaveStyleTable@OGRStyleTable@@QEAAHPEBD@Z
       1482  5C9 00097990 ?Seek@AAIGDataset@@AEAAH_K@Z
       1483  5CA 00264CB0 ?Seek@RawRasterBand@@IEAAH_KH@Z
       1484  5CB 0033B530 ?SelectClass@S57ClassRegistrar@@QEAAHH@Z
       1485  5CC 0033B8C0 ?SelectClass@S57ClassRegistrar@@QEAAHPEBD@Z
       1486  5CD 0033B490 ?SelectClassByIndex@S57ClassRegistrar@@QEAAHH@Z
       1487  5CE 0003C360 ?Serialize@GDALMultiDomainMetadata@@QEAAPEAUCPLXMLNode@@XZ
       1488  5CF 00055BC0 ?Serialize@GDALRasterAttributeTable@@QEBAPEAUCPLXMLNode@@XZ
       1489  5D0 0003F0F0 ?SerializeToXML@GDALPamDataset@@MEAAPEAUCPLXMLNode@@PEBD@Z
       1490  5D1 00043790 ?SerializeToXML@GDALPamRasterBand@@MEAAPEAUCPLXMLNode@@PEBD@Z
       1491  5D2 0030EE20 ?SerializeToXML@GMLFeatureClass@@QEAAPEAUCPLXMLNode@@XZ
       1492  5D3 002D9810 ?SerializeToXML@VRTDataset@@UEAAPEAUCPLXMLNode@@PEBD@Z
       1493  5D4 002DBC20 ?SerializeToXML@VRTDerivedRasterBand@@UEAAPEAUCPLXMLNode@@PEBD@Z
       1494  5D5 002DE2C0 ?SerializeToXML@VRTRasterBand@@UEAAPEAUCPLXMLNode@@PEBD@Z
       1495  5D6 002DFC40 ?SerializeToXML@VRTRawRasterBand@@UEAAPEAUCPLXMLNode@@PEBD@Z
       1496  5D7 002E0B20 ?SerializeToXML@VRTSourcedRasterBand@@UEAAPEAUCPLXMLNode@@PEBD@Z
       1497  5D8 002E56B0 ?SerializeToXML@VRTWarpedDataset@@UEAAPEAUCPLXMLNode@@PEBD@Z
       1498  5D9 002E5FD0 ?SerializeToXML@VRTWarpedRasterBand@@UEAAPEAUCPLXMLNode@@PEBD@Z
       1499  5DA 00485260 ?Set@OGRFieldDefn@@QEAAXPEBDW4OGRFieldType@@HHW4OGRJustification@@@Z
       1500  5DB 00448400 ?SetACEA@OGRSpatialReference@@QEAAHNNNNNN@Z
       1501  5DC 00448560 ?SetAE@OGRSpatialReference@@QEAAHNNNN@Z
       1502  5DD 00264BC0 ?SetAccess@RawRasterBand@@QEAAXW4GDALAccess@@@Z
       1503  5DE 00076C20 ?SetAdjustmentHor@OGRStyleLabel@@QEAAXPEBD@Z
       1504  5DF 00076C20 ?SetAdjustmentVert@OGRStyleLabel@@QEAAXPEBD@Z
       1505  5E0 00076AE0 ?SetAnchor@OGRStyleLabel@@QEAAXH@Z
       1506  5E1 00076600 ?SetAngle@OGRStyleBrush@@QEAAXN@Z
       1507  5E2 00076A60 ?SetAngle@OGRStyleLabel@@QEAAXN@Z
       1508  5E3 000767D0 ?SetAngle@OGRStyleSymbol@@QEAAXN@Z
       1509  5E4 004433F0 ?SetAngularUnits@OGRSpatialReference@@QEAAHPEBDN@Z
       1510  5E5 002F40C0 ?SetAttributeFilter@OGRLayer@@UEAAHPEBD@Z
       1511  5E6 002FD580 ?SetAttributeIndex@GMLPropertyDefn@@QEAAXH@Z
       1512  5E7 004453C0 ?SetAuthority@OGRSpatialReference@@QEAAHPEBD0H@Z
       1513  5E8 00446FF0 ?SetAxes@OGRSpatialReference@@QEAAHPEBD0W4OGRAxisOrientation@@01@Z
       1514  5E9 000765C0 ?SetBackColor@OGRStyleBrush@@QEAAXPEBD@Z
       1515  5EA 00076AA0 ?SetBackColor@OGRStyleLabel@@QEAAXPEBD@Z
       1516  5EB 00030DF0 ?SetBand@GDALDataset@@IEAAXHPEAVGDALRasterBand@@@Z
       1517  5EC 00076B60 ?SetBold@OGRStyleLabel@@QEAAXH@Z
       1518  5ED 00448670 ?SetBonne@OGRSpatialReference@@QEAAHNNNN@Z
       1519  5EE 00448780 ?SetCEA@OGRSpatialReference@@QEAAHNNNN@Z
       1520  5EF 00448890 ?SetCS@OGRSpatialReference@@QEAAHNNNN@Z
       1521  5F0 00076470 ?SetCap@OGRStylePen@@QEAAXPEBD@Z
       1522  5F1 000424C0 ?SetCategoryNames@GDALPamRasterBand@@UEAA?AW4CPLErr@@PEAPEAD@Z
       1523  5F2 00046A20 ?SetCategoryNames@GDALProxyRasterBand@@UEAA?AW4CPLErr@@PEAPEAD@Z
       1524  5F3 0004A4E0 ?SetCategoryNames@GDALRasterBand@@UEAA?AW4CPLErr@@PEAPEAD@Z
       1525  5F4 001E5DF0 ?SetCategoryNames@MEMRasterBand@@UEAA?AW4CPLErr@@PEAPEAD@Z
       1526  5F5 00264D80 ?SetCategoryNames@RawRasterBand@@UEAA?AW4CPLErr@@PEAPEAD@Z
       1527  5F6 002DDC60 ?SetCategoryNames@VRTRasterBand@@UEAA?AW4CPLErr@@PEAPEAD@Z
       1528  5F7 003C35D0 ?SetClassBased@S57Reader@@QEAAXPEAVS57ClassRegistrar@@@Z
       1529  5F8 003C9F40 ?SetClassBased@S57Writer@@QEAAXPEAVS57ClassRegistrar@@@Z
       1530  5F9 0041E820 ?SetClientInfoByIndex@DDFRecordIndex@@QEAAXHPEAX@Z
       1531  5FA 000763D0 ?SetColor@OGRStylePen@@QEAAXPEBD@Z
       1532  5FB 000767F0 ?SetColor@OGRStyleSymbol@@QEAAXPEBD@Z
       1533  5FC 000300B0 ?SetColorEntry@GDALColorTable@@QEAAXHPEBUGDALColorEntry@@@Z
       1534  5FD 00042620 ?SetColorInterpretation@GDALPamRasterBand@@UEAA?AW4CPLErr@@W4GDALColorInterp@@@Z
       1535  5FE 00046BA0 ?SetColorInterpretation@GDALProxyRasterBand@@UEAA?AW4CPLErr@@W4GDALColorInterp@@@Z
       1536  5FF 0004A9F0 ?SetColorInterpretation@GDALRasterBand@@UEAA?AW4CPLErr@@W4GDALColorInterp@@@Z
       1537  600 001E5C40 ?SetColorInterpretation@MEMRasterBand@@UEAA?AW4CPLErr@@W4GDALColorInterp@@@Z
       1538  601 00264E50 ?SetColorInterpretation@RawRasterBand@@UEAA?AW4CPLErr@@W4GDALColorInterp@@@Z
       1539  602 002DDDF0 ?SetColorInterpretation@VRTRasterBand@@UEAA?AW4CPLErr@@W4GDALColorInterp@@@Z
       1540  603 00042560 ?SetColorTable@GDALPamRasterBand@@UEAA?AW4CPLErr@@PEAVGDALColorTable@@@Z
       1541  604 00046B20 ?SetColorTable@GDALProxyRasterBand@@UEAA?AW4CPLErr@@PEAVGDALColorTable@@@Z
       1542  605 0004AAE0 ?SetColorTable@GDALRasterBand@@UEAA?AW4CPLErr@@PEAVGDALColorTable@@@Z
       1543  606 001E5C60 ?SetColorTable@MEMRasterBand@@UEAA?AW4CPLErr@@PEAVGDALColorTable@@@Z
       1544  607 00264DC0 ?SetColorTable@RawRasterBand@@UEAA?AW4CPLErr@@PEAVGDALColorTable@@@Z
       1545  608 002DDD60 ?SetColorTable@VRTRasterBand@@UEAA?AW4CPLErr@@PEAVGDALColorTable@@@Z
       1546  609 00485100 ?SetDefault@OGRFieldDefn@@QEAAXPEBTOGRField@@@Z
       1547  60A 000442D0 ?SetDefaultHistogram@GDALPamRasterBand@@UEAA?AW4CPLErr@@NNHPEAH@Z
       1548  60B 00047500 ?SetDefaultHistogram@GDALProxyRasterBand@@UEAA?AW4CPLErr@@NNHPEAH@Z
       1549  60C 0004BBC0 ?SetDefaultHistogram@GDALRasterBand@@UEAA?AW4CPLErr@@NNHPEAH@Z
       1550  60D 002DDFA0 ?SetDefaultHistogram@VRTRasterBand@@UEAA?AW4CPLErr@@NNHPEAH@Z
       1551  60E 00042B70 ?SetDefaultRAT@GDALPamRasterBand@@UEAA?AW4CPLErr@@PEBVGDALRasterAttributeTable@@@Z
       1552  60F 00047610 ?SetDefaultRAT@GDALProxyRasterBand@@UEAA?AW4CPLErr@@PEBVGDALRasterAttributeTable@@@Z
       1553  610 0004BCC0 ?SetDefaultRAT@GDALRasterBand@@UEAA?AW4CPLErr@@PEBVGDALRasterAttributeTable@@@Z
       1554  611 0003BFC0 ?SetDescription@GDALMajorObject@@UEAAXPEBD@Z
       1555  612 000426B0 ?SetDescription@GDALPamRasterBand@@UEAAXPEBD@Z
       1556  613 002DE1A0 ?SetDescription@VRTRasterBand@@UEAAXPEBD@Z
       1557  614 002F69E0 ?SetDriver@OGRDataSource@@QEAAXPEAVOGRSFDriver@@@Z
       1558  615 004489A0 ?SetEC@OGRSpatialReference@@QEAAHNNNNNN@Z
       1559  616 00448B00 ?SetEckert@OGRSpatialReference@@QEAAHHNNN@Z
       1560  617 00448C60 ?SetEckertIV@OGRSpatialReference@@QEAAHNNN@Z
       1561  618 00448D40 ?SetEckertVI@OGRSpatialReference@@QEAAHNNN@Z
       1562  619 0030EBA0 ?SetElementName@GMLFeatureClass@@QEAAXPEBD@Z
       1563  61A 00448F30 ?SetEquirectangular2@OGRSpatialReference@@QEAAHNNNNN@Z
       1564  61B 00448E20 ?SetEquirectangular@OGRSpatialReference@@QEAAHNNNN@Z
       1565  61C 00446C20 ?SetExtension@OGRSpatialReference@@QEAAHPEBD00@Z
       1566  61D 0030ECC0 ?SetExtents@GMLFeatureClass@@QEAAXNNNN@Z
       1567  61E 0030EC70 ?SetExtraInfo@GMLFeatureClass@@QEAAXPEBD@Z
       1568  61F 0030FA70 ?SetFID@GMLFeature@@QEAAXPEBD@Z
       1569  620 00465A50 ?SetFID@OGRFeature@@UEAAHJ@Z
       1570  621 003FDBE0 ?SetFID@VFKFeature@@QEAAXJ@Z
       1571  622 002F43D0 ?SetFeature@OGRLayer@@UEAAHPEAVOGRFeature@@@Z
       1572  623 0030EC50 ?SetFeatureCount@GMLFeatureClass@@QEAAXH@Z
       1573  624 00361170 ?SetFeatureCount@VFKDataBlock@@QEAAXHH@Z
       1574  625 0043EB10 ?SetFeatureStyleString@OGRStyleMgr@@QEAAHPEAVOGRFeature@@PEBDH@Z
       1575  626 004650E0 ?SetField@OGRFeature@@QEAAXHH@Z
       1576  627 00465380 ?SetField@OGRFeature@@QEAAXHHHHHHHH@Z
       1577  628 00466CC0 ?SetField@OGRFeature@@QEAAXHHPEAE@Z
       1578  629 00466980 ?SetField@OGRFeature@@QEAAXHHPEAH@Z
       1579  62A 00466A90 ?SetField@OGRFeature@@QEAAXHHPEAN@Z
       1580  62B 00465220 ?SetField@OGRFeature@@QEAAXHN@Z
       1581  62C 00466BA0 ?SetField@OGRFeature@@QEAAXHPEAPEAD@Z
       1582  62D 004654C0 ?SetField@OGRFeature@@QEAAXHPEATOGRField@@@Z
       1583  62E 00466DD0 ?SetField@OGRFeature@@QEAAXHPEBD@Z
       1584  62F 00077110 ?SetField@OGRFeature@@QEAAXPEBD0@Z
       1585  630 000770A0 ?SetField@OGRFeature@@QEAAXPEBDH@Z
       1586  631 00077220 ?SetField@OGRFeature@@QEAAXPEBDHHHHHHH@Z
       1587  632 00077140 ?SetField@OGRFeature@@QEAAXPEBDHPEAH@Z
       1588  633 00077180 ?SetField@OGRFeature@@QEAAXPEBDHPEAN@Z
       1589  634 000770D0 ?SetField@OGRFeature@@QEAAXPEBDN@Z
       1590  635 000771C0 ?SetField@OGRFeature@@QEAAXPEBDPEAPEAD@Z
       1591  636 000771F0 ?SetField@OGRFeature@@QEAAXPEBDPEATOGRField@@@Z
       1592  637 0004C600 ?SetFlushBlockErr@GDALRasterBand@@AEAAXW4CPLErr@@@Z
       1593  638 00076A00 ?SetFontName@OGRStyleLabel@@QEAAXPEBD@Z
       1594  639 000768F0 ?SetFontName@OGRStyleSymbol@@QEAAXPEBD@Z
       1595  63A 00076A80 ?SetForColor@OGRStyleLabel@@QEAAXPEBD@Z
       1596  63B 000765A0 ?SetForeColor@OGRStyleBrush@@QEAAXPEBD@Z
       1597  63C 00467670 ?SetFrom@OGRFeature@@QEAAHPEAV1@H@Z
       1598  63D 00467380 ?SetFrom@OGRFeature@@QEAAHPEAV1@PEAHH@Z
       1599  63E 0044CC80 ?SetFromUserInput@OGRSpatialReference@@QEAAHPEBD@Z
       1600  63F 00031700 ?SetGCPs@GDALDataset@@UEAA?AW4CPLErr@@HPEBUGDAL_GCP@@PEBD@Z
       1601  640 0003AEE0 ?SetGCPs@GDALJP2Metadata@@QEAAXHPEBUGDAL_GCP@@@Z
       1602  641 0003FD30 ?SetGCPs@GDALPamDataset@@UEAA?AW4CPLErr@@HPEBUGDAL_GCP@@PEBD@Z
       1603  642 00045EB0 ?SetGCPs@GDALProxyDataset@@UEAA?AW4CPLErr@@HPEBUGDAL_GCP@@PEBD@Z
       1604  643 001E6800 ?SetGCPs@MEMDataset@@UEAA?AW4CPLErr@@HPEBUGDAL_GCP@@PEBD@Z
       1605  644 002D9CB0 ?SetGCPs@VRTDataset@@UEAA?AW4CPLErr@@HPEBUGDAL_GCP@@PEBD@Z
       1606  645 00449220 ?SetGEOS@OGRSpatialReference@@QEAAHNNNN@Z
       1607  646 00449140 ?SetGH@OGRSpatialReference@@QEAAHNNN@Z
       1608  647 00449060 ?SetGS@OGRSpatialReference@@QEAAHNNN@Z
       1609  648 00449330 ?SetGaussSchreiberTMercator@OGRSpatialReference@@QEAAHNNNNN@Z
       1610  649 00031280 ?SetGeoTransform@GDALDataset@@UEAA?AW4CPLErr@@PEAN@Z
       1611  64A 0003AF40 ?SetGeoTransform@GDALJP2Metadata@@QEAAXPEAN@Z
       1612  64B 0003FCA0 ?SetGeoTransform@GDALPamDataset@@UEAA?AW4CPLErr@@PEAN@Z
       1613  64C 00045B90 ?SetGeoTransform@GDALProxyDataset@@UEAA?AW4CPLErr@@PEAN@Z
       1614  64D 00048490 ?SetGeoTransform@GDALProxyPoolDataset@@UEAA?AW4CPLErr@@PEAN@Z
       1615  64E 001584C0 ?SetGeoTransform@HFADataset@@UEAA?AW4CPLErr@@PEAN@Z
       1616  64F 001E5EF0 ?SetGeoTransform@MEMDataset@@UEAA?AW4CPLErr@@PEAN@Z
       1617  650 002D9DD0 ?SetGeoTransform@VRTDataset@@UEAA?AW4CPLErr@@PEAN@Z
       1618  651 00443E80 ?SetGeogCS@OGRSpatialReference@@QEAAHPEBD00NN0N0N@Z
       1619  652 0046AB30 ?SetGeomType@OGRFeatureDefn@@QEAAXW4OGRwkbGeometryType@@@Z
       1620  653 004639D0 ?SetGeometry@OGRFeature@@QEAAHPEAVOGRGeometry@@@Z
       1621  654 003FDC10 ?SetGeometry@VFKFeature@@QEAAXPEAVOGRGeometry@@@Z
       1622  655 002FD5E0 ?SetGeometryAttributeIndex@GMLFeatureClass@@QEAAXH@Z
       1623  656 0030FD30 ?SetGeometryDirectly@GMLFeature@@QEAAXPEAD@Z
       1624  657 00463900 ?SetGeometryDirectly@OGRFeature@@QEAAHPEAVOGRGeometry@@@Z
       1625  658 0030EC00 ?SetGeometryElement@GMLFeatureClass@@QEAAXPEBD@Z
       1626  659 00076DA0 ?SetGeometryIgnored@OGRFeatureDefn@@QEAAXH@Z
       1627  65A 002FD5C0 ?SetGeometryType@GMLFeatureClass@@QEAAXH@Z
       1628  65B 00361230 ?SetGeometryType@VFKDataBlock@@QEAA?AW4OGRwkbGeometryType@@XZ
       1629  65C 00449420 ?SetGnomonic@OGRSpatialReference@@QEAAHNNNN@Z
       1630  65D 004496B0 ?SetHOM2PNO@OGRSpatialReference@@QEAAHNNNNNNNN@Z
       1631  65E 00449530 ?SetHOM@OGRSpatialReference@@QEAAHNNNNNNN@Z
       1632  65F 00037C40 ?SetHome@GDALDriverManager@@QEAAXPEBD@Z
       1633  660 00449860 ?SetIWMPolyconic@OGRSpatialReference@@QEAAHNNNNN@Z
       1634  661 000765E0 ?SetId@OGRStyleBrush@@QEAAXPEBD@Z
       1635  662 00076430 ?SetId@OGRStylePen@@QEAAXPEBD@Z
       1636  663 000767B0 ?SetId@OGRStyleSymbol@@QEAAXPEBD@Z
       1637  664 00076DA0 ?SetIgnored@OGRFieldDefn@@QEAAXH@Z
       1638  665 00306030 ?SetIgnoredFields@OGRGenSQLResultsLayer@@AEAAXXZ
       1639  666 002F5210 ?SetIgnoredFields@OGRLayer@@UEAAHPEAPEBD@Z
       1640  667 0043B970 ?SetInternalInputUnitFromParam@OGRStyleTool@@QEAAXPEAD@Z
       1641  668 002DE220 ?SetIsMaskBand@VRTRasterBand@@QEAAXXZ
       1642  669 00076B80 ?SetItalic@OGRStyleLabel@@QEAAXH@Z
       1643  66A 00076490 ?SetJoin@OGRStylePen@@QEAAXPEBD@Z
       1644  66B 002FD560 ?SetJustify@OGRFieldDefn@@QEAAXW4OGRJustification@@@Z
       1645  66C 00449990 ?SetKrovak@OGRSpatialReference@@QEAAHNNNNNNN@Z
       1646  66D 00449B10 ?SetLAEA@OGRSpatialReference@@QEAAHNNNN@Z
       1647  66E 00449D80 ?SetLCC1SP@OGRSpatialReference@@QEAAHNNNNN@Z
       1648  66F 00449C20 ?SetLCC@OGRSpatialReference@@QEAAHNNNNNN@Z
       1649  670 00449EB0 ?SetLCCB@OGRSpatialReference@@QEAAHNNNNNN@Z
       1650  671 00054B40 ?SetLinearBinning@GDALRasterAttributeTable@@QEAA?AW4CPLErr@@NN@Z
       1651  672 004437C0 ?SetLinearUnits@OGRSpatialReference@@QEAAHPEBDN@Z
       1652  673 004476A0 ?SetLinearUnitsAndUpdateParameters@OGRSpatialReference@@QEAAHPEBDN@Z
       1653  674 00444AC0 ?SetLocalCS@OGRSpatialReference@@QEAAHPEBD@Z
       1654  675 0044A010 ?SetMC@OGRSpatialReference@@QEAAHNNNN@Z
       1655  676 0003BEB0 ?SetMOFlags@GDALMajorObject@@QEAAXH@Z
       1656  677 002DA8C0 ?SetMaskBand@VRTDataset@@QEAAXPEAVVRTRasterBand@@@Z
       1657  678 002DE270 ?SetMaskBand@VRTRasterBand@@QEAAXPEAV1@@Z
       1658  679 003613A0 ?SetMaxFID@VFKDataBlock@@QEAAJJ@Z
       1659  67A 0044A260 ?SetMercator2SP@OGRSpatialReference@@QEAAHNNNNN@Z
       1660  67B 0044A120 ?SetMercator@OGRSpatialReference@@QEAAHNNNNN@Z
       1661  67C 0003BD60 ?SetMetadata@GDALMajorObject@@UEAA?AW4CPLErr@@PEAPEADPEBD@Z
       1662  67D 0003C140 ?SetMetadata@GDALMultiDomainMetadata@@QEAA?AW4CPLErr@@PEAPEADPEBD@Z
       1663  67E 0003FE00 ?SetMetadata@GDALPamDataset@@UEAA?AW4CPLErr@@PEAPEADPEBD@Z
       1664  67F 000420B0 ?SetMetadata@GDALPamRasterBand@@UEAA?AW4CPLErr@@PEAPEADPEBD@Z
       1665  680 000458A0 ?SetMetadata@GDALProxyDataset@@UEAA?AW4CPLErr@@PEAPEADPEBD@Z
       1666  681 00046350 ?SetMetadata@GDALProxyRasterBand@@UEAA?AW4CPLErr@@PEAPEADPEBD@Z
       1667  682 001583C0 ?SetMetadata@HFADataset@@UEAA?AW4CPLErr@@PEAPEADPEBD@Z
       1668  683 002D9E90 ?SetMetadata@VRTDataset@@UEAA?AW4CPLErr@@PEAPEADPEBD@Z
       1669  684 002DDAA0 ?SetMetadata@VRTRasterBand@@UEAA?AW4CPLErr@@PEAPEADPEBD@Z
       1670  685 002E1700 ?SetMetadata@VRTSourcedRasterBand@@UEAA?AW4CPLErr@@PEAPEADPEBD@Z
       1671  686 0003BE30 ?SetMetadataItem@GDALMajorObject@@UEAA?AW4CPLErr@@PEBD00@Z
       1672  687 0003C270 ?SetMetadataItem@GDALMultiDomainMetadata@@QEAA?AW4CPLErr@@PEBD00@Z
       1673  688 0003FE60 ?SetMetadataItem@GDALPamDataset@@UEAA?AW4CPLErr@@PEBD00@Z
       1674  689 00042110 ?SetMetadataItem@GDALPamRasterBand@@UEAA?AW4CPLErr@@PEBD00@Z
       1675  68A 00045990 ?SetMetadataItem@GDALProxyDataset@@UEAA?AW4CPLErr@@PEBD00@Z
       1676  68B 00046440 ?SetMetadataItem@GDALProxyRasterBand@@UEAA?AW4CPLErr@@PEBD00@Z
       1677  68C 001583E0 ?SetMetadataItem@HFADataset@@UEAA?AW4CPLErr@@PEBD00@Z
       1678  68D 002D9EB0 ?SetMetadataItem@VRTDataset@@UEAA?AW4CPLErr@@PEBD00@Z
       1679  68E 002DDAC0 ?SetMetadataItem@VRTRasterBand@@UEAA?AW4CPLErr@@PEBD00@Z
       1680  68F 002E1520 ?SetMetadataItem@VRTSourcedRasterBand@@UEAA?AW4CPLErr@@PEBD00@Z
       1681  690 0044A3A0 ?SetMollweide@OGRSpatialReference@@QEAAHNNN@Z
       1682  691 0044A480 ?SetNZMG@OGRSpatialReference@@QEAAHNNNN@Z
       1683  692 00485050 ?SetName@OGRFieldDefn@@QEAAXPEBD@Z
       1684  693 0026E390 ?SetNeedsFlush@VRTDataset@@QEAAXXZ
       1685  694 00305890 ?SetNextByIndex@OGRGenSQLResultsLayer@@UEAAHJ@Z
       1686  695 002F42C0 ?SetNextByIndex@OGRLayer@@UEAAHJ@Z
       1687  696 003C3640 ?SetNextFEIndex@S57Reader@@QEAAXHH@Z
       1688  697 003613C0 ?SetNextFeature@VFKDataBlock@@QEAAHPEBVVFKFeature@@@Z
       1689  698 00042180 ?SetNoDataValue@GDALPamRasterBand@@UEAA?AW4CPLErr@@N@Z
       1690  699 00046AA0 ?SetNoDataValue@GDALProxyRasterBand@@UEAA?AW4CPLErr@@N@Z
       1691  69A 0004A5E0 ?SetNoDataValue@GDALRasterBand@@UEAA?AW4CPLErr@@N@Z
       1692  69B 001E5C00 ?SetNoDataValue@MEMRasterBand@@UEAA?AW4CPLErr@@N@Z
       1693  69C 002DDCB0 ?SetNoDataValue@VRTRasterBand@@UEAA?AW4CPLErr@@N@Z
       1694  69D 00443110 ?SetNode@OGRSpatialReference@@QEAAHPEBD0@Z
       1695  69E 00443340 ?SetNode@OGRSpatialReference@@QEAAHPEBDN@Z
       1696  69F 00447D10 ?SetNormProjParm@OGRSpatialReference@@QEAAHPEBDN@Z
       1697  6A0 00076910 ?SetOColor@OGRStyleSymbol@@QEAAXPEBD@Z
       1698  6A1 0044A590 ?SetOS@OGRSpatialReference@@QEAAHNNNNN@Z
       1699  6A2 00039590 ?SetOffset@GDALJP2Box@@QEAAH_J@Z
       1700  6A3 00042260 ?SetOffset@GDALPamRasterBand@@UEAA?AW4CPLErr@@N@Z
       1701  6A4 00046C20 ?SetOffset@GDALProxyRasterBand@@UEAA?AW4CPLErr@@N@Z
       1702  6A5 0004AE10 ?SetOffset@GDALRasterBand@@UEAA?AW4CPLErr@@N@Z
       1703  6A6 001E5D80 ?SetOffset@MEMRasterBand@@UEAA?AW4CPLErr@@N@Z
       1704  6A7 00076890 ?SetOffset@OGRStyleSymbol@@QEAAXN@Z
       1705  6A8 002DDBF0 ?SetOffset@VRTRasterBand@@UEAA?AW4CPLErr@@N@Z
       1706  6A9 003C33C0 ?SetOptions@S57Reader@@QEAAXPEAPEAD@Z
       1707  6AA 0044A6C0 ?SetOrthographic@OGRSpatialReference@@QEAAHNNNN@Z
       1708  6AB 00076C70 ?SetOutlineColor@OGRStyleLabel@@QEAAXPEBD@Z
       1709  6AC 0044A8E0 ?SetPS@OGRSpatialReference@@QEAAHNNNNN@Z
       1710  6AD 00037890 ?SetPamFlags@GDALPamDataset@@QEAAXH@Z
       1711  6AE 0043E110 ?SetParamDbl@OGRStyleBrush@@QEAAXW4ogr_style_tool_param_brush_id@@N@Z
       1712  6AF 0043E210 ?SetParamDbl@OGRStyleLabel@@QEAAXW4ogr_style_tool_param_label_id@@N@Z
       1713  6B0 0043E090 ?SetParamDbl@OGRStylePen@@QEAAXW4ogr_style_tool_param_pen_id@@N@Z
       1714  6B1 0043E190 ?SetParamDbl@OGRStyleSymbol@@QEAAXW4ogr_style_tool_param_symbol_id@@N@Z
       1715  6B2 0043DF70 ?SetParamDbl@OGRStyleTool@@QEAAXAEBUogr_style_param@@AEAUogr_style_value@@N@Z
       1716  6B3 0043E0E0 ?SetParamNum@OGRStyleBrush@@QEAAXW4ogr_style_tool_param_brush_id@@H@Z
       1717  6B4 0043E1E0 ?SetParamNum@OGRStyleLabel@@QEAAXW4ogr_style_tool_param_label_id@@H@Z
       1718  6B5 0043E060 ?SetParamNum@OGRStylePen@@QEAAXW4ogr_style_tool_param_pen_id@@H@Z
       1719  6B6 0043E160 ?SetParamNum@OGRStyleSymbol@@QEAAXW4ogr_style_tool_param_symbol_id@@H@Z
       1720  6B7 0043DE70 ?SetParamNum@OGRStyleTool@@QEAAXAEBUogr_style_param@@AEAUogr_style_value@@H@Z
       1721  6B8 0043C2C0 ?SetParamStr@OGRStyleBrush@@QEAAXW4ogr_style_tool_param_brush_id@@PEBD@Z
       1722  6B9 0043C5A0 ?SetParamStr@OGRStyleLabel@@QEAAXW4ogr_style_tool_param_label_id@@PEBD@Z
       1723  6BA 0043C150 ?SetParamStr@OGRStylePen@@QEAAXW4ogr_style_tool_param_pen_id@@PEBD@Z
       1724  6BB 0043C430 ?SetParamStr@OGRStyleSymbol@@QEAAXW4ogr_style_tool_param_symbol_id@@PEBD@Z
       1725  6BC 0043BE10 ?SetParamStr@OGRStyleTool@@QEAAXAEBUogr_style_param@@AEAUogr_style_value@@PEBD@Z
       1726  6BD 00076410 ?SetPattern@OGRStylePen@@QEAAXPEBD@Z
       1727  6BE 00076B40 ?SetPerp@OGRStyleLabel@@QEAAXN@Z
       1728  6BF 000768B0 ?SetPerp@OGRStyleSymbol@@QEAAXN@Z
       1729  6C0 00076450 ?SetPerpendicularOffset@OGRStylePen@@QEAAXN@Z
       1730  6C1 00040000 ?SetPhysicalFilename@GDALPamDataset@@IEAAXPEBD@Z
       1731  6C2 002DB650 ?SetPixelFunctionName@VRTDerivedRasterBand@@QEAAXPEBD@Z
       1732  6C3 00076AC0 ?SetPlacement@OGRStyleLabel@@QEAAXPEBD@Z
       1733  6C4 0044A7D0 ?SetPolyconic@OGRSpatialReference@@QEAAHNNNN@Z
       1734  6C5 002FD570 ?SetPrecision@GMLPropertyDefn@@QEAAXH@Z
       1735  6C6 00076D70 ?SetPrecision@OGRFieldDefn@@QEAAXH@Z
       1736  6C7 00076680 ?SetPriority@OGRStyleBrush@@QEAAXH@Z
       1737  6C8 00076BC0 ?SetPriority@OGRStyleLabel@@QEAAXH@Z
       1738  6C9 000764B0 ?SetPriority@OGRStylePen@@QEAAXH@Z
       1739  6CA 000768D0 ?SetPriority@OGRStyleSymbol@@QEAAXH@Z
       1740  6CB 00444C00 ?SetProjCS@OGRSpatialReference@@QEAAHPEBD@Z
       1741  6CC 00444EA0 ?SetProjParm@OGRSpatialReference@@QEAAHPEBDN@Z
       1742  6CD 00031170 ?SetProjection@GDALDataset@@UEAA?AW4CPLErr@@PEBD@Z
       1743  6CE 0003AEA0 ?SetProjection@GDALJP2Metadata@@QEAAXPEBD@Z
       1744  6CF 0003FC30 ?SetProjection@GDALPamDataset@@UEAA?AW4CPLErr@@PEBD@Z
       1745  6D0 00045A90 ?SetProjection@GDALProxyDataset@@UEAA?AW4CPLErr@@PEBD@Z
       1746  6D1 00048450 ?SetProjection@GDALProxyPoolDataset@@UEAA?AW4CPLErr@@PEBD@Z
       1747  6D2 00158370 ?SetProjection@HFADataset@@UEAA?AW4CPLErr@@PEBD@Z
       1748  6D3 001E5E50 ?SetProjection@MEMDataset@@UEAA?AW4CPLErr@@PEBD@Z
       1749  6D4 00444D80 ?SetProjection@OGRSpatialReference@@QEAAHPEBD@Z
       1750  6D5 002D9D50 ?SetProjection@VRTDataset@@UEAA?AW4CPLErr@@PEBD@Z
       1751  6D6 003614D0 ?SetProperties@VFKDataBlock@@QEAAHPEAD@Z
       1752  6D7 0030FAE0 ?SetProperty@GMLFeature@@QEAAXHPEBD@Z
       1753  6D8 002FD610 ?SetProperty@GMLFeature@@QEAAXPEBD0@Z
       1754  6D9 003FDCA0 ?SetProperty@VFKFeature@@QEAAXHPEBD@Z
       1755  6DA 002DFF10 ?SetRawLink@VRTRawRasterBand@@QEAA?AW4CPLErr@@PEBD0H_KHH0@Z
       1756  6DB 0044AA10 ?SetRobinson@OGRSpatialReference@@QEAAHNNN@Z
       1757  6DC 00442DC0 ?SetRoot@OGRSpatialReference@@QEAAXPEAVOGR_SRSNode@@@Z
       1758  6DD 00056170 ?SetRowCount@GDALRasterAttributeTable@@QEAAXH@Z
       1759  6DE 0044AD00 ?SetSOC@OGRSpatialReference@@QEAAHNNNN@Z
       1760  6DF 0030ED30 ?SetSRSName@GMLFeatureClass@@QEAAXPEBD@Z
       1761  6E0 00042300 ?SetScale@GDALPamRasterBand@@UEAA?AW4CPLErr@@N@Z
       1762  6E1 00046CA0 ?SetScale@GDALProxyRasterBand@@UEAA?AW4CPLErr@@N@Z
       1763  6E2 0004AF10 ?SetScale@GDALRasterBand@@UEAA?AW4CPLErr@@N@Z
       1764  6E3 001E5DC0 ?SetScale@MEMRasterBand@@UEAA?AW4CPLErr@@N@Z
       1765  6E4 002DDC30 ?SetScale@VRTRasterBand@@UEAA?AW4CPLErr@@N@Z
       1766  6E5 00076DA0 ?SetSchemaLocked@GMLFeatureClass@@QEAAXH@Z
       1767  6E6 00076C50 ?SetShadowColor@OGRStyleLabel@@QEAAXPEBD@Z
       1768  6E7 0044AAF0 ?SetSinusoidal@OGRSpatialReference@@QEAAHNNN@Z
       1769  6E8 00076620 ?SetSize@OGRStyleBrush@@QEAAXN@Z
       1770  6E9 00076A20 ?SetSize@OGRStyleLabel@@QEAAXN@Z
       1771  6EA 00076810 ?SetSize@OGRStyleSymbol@@QEAAXN@Z
       1772  6EB 002DB680 ?SetSourceTransferType@VRTDerivedRasterBand@@QEAAXW4GDALDataType@@@Z
       1773  6EC 00076640 ?SetSpacingX@OGRStyleBrush@@QEAAXN@Z
       1774  6ED 00076B00 ?SetSpacingX@OGRStyleLabel@@QEAAXN@Z
       1775  6EE 00076830 ?SetSpacingX@OGRStyleSymbol@@QEAAXN@Z
       1776  6EF 00076660 ?SetSpacingY@OGRStyleBrush@@QEAAXN@Z
       1777  6F0 00076B20 ?SetSpacingY@OGRStyleLabel@@QEAAXN@Z
       1778  6F1 00076850 ?SetSpacingY@OGRStyleSymbol@@QEAAXN@Z
       1779  6F2 002F53F0 ?SetSpatialFilter@OGRLayer@@UEAAXPEAVOGRGeometry@@@Z
       1780  6F3 002F48A0 ?SetSpatialFilterRect@OGRLayer@@UEAAXNNNN@Z
       1781  6F4 0034BF20 ?SetSrcElement@GMLPropertyDefn@@QEAAXPEBD@Z
       1782  6F5 0046F990 ?SetStatePlane@OGRSpatialReference@@QEAAHHHPEBDN@Z
       1783  6F6 00046F10 ?SetStatistics@GDALProxyRasterBand@@UEAA?AW4CPLErr@@NNNN@Z
       1784  6F7 0004B9A0 ?SetStatistics@GDALRasterBand@@UEAA?AW4CPLErr@@NNNN@Z
       1785  6F8 00076870 ?SetStep@OGRStyleSymbol@@QEAAXN@Z
       1786  6F9 0044ABD0 ?SetStereographic@OGRSpatialReference@@QEAAHNNNNN@Z
       1787  6FA 00076C00 ?SetStretch@OGRStyleLabel@@QEAAXN@Z
       1788  6FB 00076BE0 ?SetStrikeout@OGRStyleLabel@@QEAAXH@Z
       1789  6FC 00076E20 ?SetStyleIgnored@OGRFeatureDefn@@QEAAXH@Z
       1790  6FD 00466310 ?SetStyleString@OGRFeature@@UEAAXPEBD@Z
       1791  6FE 0043B720 ?SetStyleString@OGRStyleTool@@QEAAXPEBD@Z
       1792  6FF 004663B0 ?SetStyleStringDirectly@OGRFeature@@UEAAXPEAD@Z
       1793  700 002F6A60 ?SetStyleTable@OGRDataSource@@UEAAXPEAVOGRStyleTable@@@Z
       1794  701 00466450 ?SetStyleTable@OGRFeature@@UEAAXPEAVOGRStyleTable@@@Z
       1795  702 002F4FB0 ?SetStyleTable@OGRLayer@@UEAAXPEAVOGRStyleTable@@@Z
       1796  703 002F6A00 ?SetStyleTableDirectly@OGRDataSource@@UEAAXPEAVOGRStyleTable@@@Z
       1797  704 00079880 ?SetStyleTableDirectly@OGRFeature@@UEAAXPEAVOGRStyleTable@@@Z
       1798  705 002F4F50 ?SetStyleTableDirectly@OGRLayer@@UEAAXPEAVOGRStyleTable@@@Z
       1799  706 000400D0 ?SetSubdatasetName@GDALPamDataset@@IEAAXPEBD@Z
       1800  707 00447E20 ?SetTM@OGRSpatialReference@@QEAAHNNNNN@Z
       1801  708 004482F0 ?SetTMG@OGRSpatialReference@@QEAAHNNNN@Z
       1802  709 00448060 ?SetTMSO@OGRSpatialReference@@QEAAHNNNNN@Z
       1803  70A 00447F50 ?SetTMVariant@OGRSpatialReference@@QEAAHPEBDNNNNN@Z
       1804  70B 00446190 ?SetTOWGS84@OGRSpatialReference@@QEAAHNNNNNNN@Z
       1805  70C 00448120 ?SetTPED@OGRSpatialReference@@QEAAHNNNNNN@Z
       1806  70D 00076A40 ?SetTextString@OGRStyleLabel@@QEAAXPEBD@Z
       1807  70E 00039800 ?SetType@GDALJP2Box@@QEAAXPEBD@Z
       1808  70F 003B5B80 ?SetType@GMLPropertyDefn@@QEAAXW4GMLPropertyType@@@Z
       1809  710 003B5B80 ?SetType@OGRFieldDefn@@QEAAXW4OGRFieldType@@@Z
       1810  711 0044AEF0 ?SetUTM@OGRSpatialReference@@QEAAHHH@Z
       1811  712 00076BA0 ?SetUnderline@OGRStyleLabel@@QEAAXH@Z
       1812  713 0043B910 ?SetUnit@OGRStyleTool@@QEAAXW4ogr_style_tool_units_id@@N@Z
       1813  714 000423B0 ?SetUnitType@GDALPamRasterBand@@UEAA?AW4CPLErr@@PEBD@Z
       1814  715 00046D20 ?SetUnitType@GDALProxyRasterBand@@UEAA?AW4CPLErr@@PEBD@Z
       1815  716 0004B000 ?SetUnitType@GDALRasterBand@@UEAA?AW4CPLErr@@PEBD@Z
       1816  717 001E5D00 ?SetUnitType@MEMRasterBand@@UEAA?AW4CPLErr@@PEBD@Z
       1817  718 002DDB60 ?SetUnitType@VRTRasterBand@@UEAA?AW4CPLErr@@PEBD@Z
       1818  719 0044AE10 ?SetVDG@OGRSpatialReference@@QEAAHNNN@Z
       1819  71A 000564A0 ?SetValue@GDALRasterAttributeTable@@QEAAXHHH@Z
       1820  71B 00056690 ?SetValue@GDALRasterAttributeTable@@QEAAXHHN@Z
       1821  71C 000562D0 ?SetValue@GDALRasterAttributeTable@@QEAAXHHPEBD@Z
       1822  71D 0044D970 ?SetValue@OGR_SRSNode@@QEAAXPEBD@Z
       1823  71E 0044B4F0 ?SetWagner@OGRSpatialReference@@QEAAHHNNN@Z
       1824  71F 004478A0 ?SetWellKnownGeogCS@OGRSpatialReference@@QEAAHPEBD@Z
       1825  720 002FD560 ?SetWidth@GMLPropertyDefn@@QEAAXH@Z
       1826  721 00076D50 ?SetWidth@OGRFieldDefn@@QEAAXH@Z
       1827  722 000763F0 ?SetWidth@OGRStylePen@@QEAAXN@Z
       1828  723 0026E3A0 ?SetWritable@VRTDataset@@QEAAXH@Z
       1829  724 00039830 ?SetWritableData@GDALJP2Box@@QEAAXHPEBE@Z
       1830  725 00076C40 ?ShadowColor@OGRStyleLabel@@QEAAPEBDAEAH@Z
       1831  726 00450DB0 ?Simplify@OGRGeometry@@UEBAPEAV1@N@Z
       1832  727 00076610 ?Size@OGRStyleBrush@@QEAANAEAH@Z
       1833  728 00076A10 ?Size@OGRStyleLabel@@QEAANAEAH@Z
       1834  729 00076800 ?Size@OGRStyleSymbol@@QEAANAEAH@Z
       1835  72A 0041E700 ?Sort@DDFRecordIndex@@AEAAXXZ
       1836  72B 00306690 ?SortIndexSection@OGRGenSQLResultsLayer@@AEAAXPEATOGRField@@HH@Z
       1837  72C 00076630 ?SpacingX@OGRStyleBrush@@QEAANAEAH@Z
       1838  72D 00076AF0 ?SpacingX@OGRStyleLabel@@QEAANAEAH@Z
       1839  72E 00076820 ?SpacingX@OGRStyleSymbol@@QEAANAEAH@Z
       1840  72F 00076650 ?SpacingY@OGRStyleBrush@@QEAANAEAH@Z
       1841  730 00076B10 ?SpacingY@OGRStyleLabel@@QEAANAEAH@Z
       1842  731 00076840 ?SpacingY@OGRStyleSymbol@@QEAANAEAH@Z
       1843  732 00452EB0 ?StartPoint@OGRLineString@@UEBAXPEAVOGRPoint@@@Z
       1844  733 002F45C0 ?StartTransaction@OGRLayer@@UEAAHXZ
       1845  734 00463AD0 ?StealGeometry@OGRFeature@@QEAAPEAVOGRGeometry@@XZ
       1846  735 00076860 ?Step@OGRStyleSymbol@@QEAANAEAH@Z
       1847  736 00264D60 ?StoreNoDataValue@RawRasterBand@@QEAAXN@Z
       1848  737 00076BF0 ?Stretch@OGRStyleLabel@@QEAANAEAH@Z
       1849  738 00076BD0 ?Strikeout@OGRStyleLabel@@QEAAHAEAH@Z
       1850  739 00445740 ?StripCTParms@OGRSpatialReference@@QEAAHPEAVOGR_SRSNode@@@Z
       1851  73A 0044E6D0 ?StripNodes@OGR_SRSNode@@QEAAXPEBD@Z
       1852  73B 004456E0 ?StripVertical@OGRSpatialReference@@QEAAHXZ
       1853  73C 000762A0 ?StyleModified@OGRStyleTool@@QEAAXXZ
       1854  73D 000762C0 ?StyleParsed@OGRStyleTool@@QEAAXXZ
       1855  73E 00450560 ?SymDifference@OGRGeometry@@UEBAPEAV1@PEBV1@@Z
       1856  73F 00450610 ?SymmetricDifference@OGRGeometry@@UEBAPEAV1@PEBV1@@Z
       1857  740 002F6870 ?SyncToDisk@OGRDataSource@@UEAAHXZ
       1858  741 002F4D60 ?SyncToDisk@OGRLayer@@UEAAHXZ
       1859  742 00097970 ?Tell@AAIGDataset@@AEAA_KXZ
       1860  743 00305920 ?TestCapability@OGRGenSQLResultsLayer@@UEAAHPEBD@Z
       1861  744 002E7F90 ?TestUseBlockIO@WCSDataset@@AEAAHHHHHHH@Z
       1862  745 00076A30 ?TextString@OGRStyleLabel@@QEAAPEBDAEAH@Z
       1863  746 0004F390 ?Touch@GDALRasterBlock@@QEAAXXZ
       1864  747 00450790 ?Touches@OGRGeometry@@UEBAHPEBV1@@Z
       1865  748 000A3600 ?TranslateColorTable@AIGDataset@@AEAAXPEBD@Z
       1866  749 00307150 ?TranslateFeature@OGRGenSQLResultsLayer@@AEAAPEAVOGRFeature@@PEAV2@@Z
       1867  74A 000558B0 ?TranslateToColorTable@GDALRasterAttributeTable@@QEAAPEAVGDALColorTable@@H@Z
       1868  74B 00005900 ?Trim@CPLString@@QEAAAEAV1@XZ
       1869  74C 0004A2B0 ?TryGetLockedBlockRef@GDALRasterBand@@IEAAPEAVGDALRasterBlock@@HH@Z
       1870  74D 00040580 ?TryLoadAux@GDALPamDataset@@IEAA?AW4CPLErr@@XZ
       1871  74E 00040A70 ?TryLoadXML@GDALPamDataset@@MEAA?AW4CPLErr@@XZ
       1872  74F 0003ECC0 ?TrySaveXML@GDALPamDataset@@MEAA?AW4CPLErr@@XZ
       1873  750 00076B90 ?Underline@OGRStyleLabel@@QEAAHAEAH@Z
       1874  751 004502A0 ?Union@OGRGeometry@@UEBAPEAV1@PEBV1@@Z
       1875  752 004503A0 ?UnionCascaded@OGRGeometry@@UEBAPEAV1@XZ
       1876  753 0001C440 ?Unlink@VSIFilesystemHandler@@UEAAHPEBD@Z
       1877  754 000336E0 ?UnlockBuffer@GDALAsyncReader@@UEAAXXZ
       1878  755 000460A0 ?UnrefUnderlyingDataset@GDALProxyDataset@@MEAAXPEAVGDALDataset@@@Z
       1879  756 000483F0 ?UnrefUnderlyingDataset@GDALProxyPoolDataset@@MEAAXPEAVGDALDataset@@@Z
       1880  757 00048A00 ?UnrefUnderlyingRasterBand@GDALProxyPoolRasterBand@@MEAAXPEAVGDALRasterBand@@@Z
       1881  758 000477F0 ?UnrefUnderlyingRasterBand@GDALProxyRasterBand@@MEAAXPEAVGDALRasterBand@@@Z
       1882  759 00463DC0 ?UnsetField@OGRFeature@@QEAAXH@Z
       1883  75A 002DDCE0 ?UnsetNoDataValue@VRTRasterBand@@QEAA?AW4CPLErr@@XZ
       1884  75B 0015B110 ?UseXFormStack@HFADataset@@AEAAXHPEAUEfga_Polynomial@@0@Z
       1885  75C 00081D10 ?Validate@GDALWarpKernel@@QEAA?AW4CPLErr@@XZ
       1886  75D 0043F190 ?Validate@OGRSpatialReference@@CAHPEAVOGR_SRSNode@@@Z
       1887  75E 0043FC50 ?Validate@OGRSpatialReference@@QEAAHXZ
       1888  75F 0043EEA0 ?ValidateAuthority@OGRSpatialReference@@CAHPEAVOGR_SRSNode@@@Z
       1889  760 0043EF00 ?ValidateAxis@OGRSpatialReference@@CAHPEAVOGR_SRSNode@@@Z
       1890  761 00089B30 ?ValidateOptions@GDALWarpOperation@@AEAAHXZ
       1891  762 0043EC80 ?ValidateProjection@OGRSpatialReference@@CAHPEAVOGR_SRSNode@@@Z
       1892  763 0043EF60 ?ValidateUnit@OGRSpatialReference@@CAHPEAVOGR_SRSNode@@@Z
       1893  764 0043F010 ?ValidateVertDatum@OGRSpatialReference@@CAHPEAVOGR_SRSNode@@@Z
       1894  765 00452EE0 ?Value@OGRLineString@@UEBAXNPEAVOGRPoint@@@Z
       1895  766 0004F330 ?Verify@GDALRasterBlock@@SAXXZ
       1896  767 0008BE70 ?WarpRegion@GDALWarpOperation@@QEAA?AW4CPLErr@@HHHHHHHHNN@Z
       1897  768 0008B230 ?WarpRegionToBuffer@GDALWarpOperation@@QEAA?AW4CPLErr@@HHHHPEAXW4GDALDataType@@HHHHNN@Z
       1898  769 000763E0 ?Width@OGRStylePen@@QEAANAEAH@Z
       1899  76A 0008A4C0 ?WipeChunkList@GDALWarpOperation@@AEAAXXZ
       1900  76B 00089B00 ?WipeOptions@GDALWarpOperation@@AEAAXXZ
       1901  76C 00450930 ?Within@OGRGeometry@@UEBAHPEBV1@@Z
       1902  76D 00456B80 ?WkbSize@OGRGeometryCollection@@UEBAHXZ
       1903  76E 00451AE0 ?WkbSize@OGRLineString@@UEBAHXZ
       1904  76F 00453F80 ?WkbSize@OGRLinearRing@@UEBAHXZ
       1905  770 004510F0 ?WkbSize@OGRPoint@@UEBAHXZ
       1906  771 00455400 ?WkbSize@OGRPolygon@@UEBAHXZ
       1907  772 0004F6C0 ?Write@GDALRasterBlock@@QEAA?AW4CPLErr@@XZ
       1908  773 00264D20 ?Write@RawRasterBand@@IEAA_KPEAX_K1@Z
       1909  774 003C9F50 ?WriteATTF@S57Writer@@QEAAHPEAVDDFRecord@@PEAVOGRFeature@@@Z
       1910  775 0004C6F0 ?WriteBlock@GDALRasterBand@@QEAA?AW4CPLErr@@HHPEAX@Z
       1911  776 003CB980 ?WriteCompleteFeature@S57Writer@@QEAAHPEAVOGRFeature@@@Z
       1912  777 003CB210 ?WriteDSID@S57Writer@@QEAAHPEBD00H0@Z
       1913  778 003CB740 ?WriteDSPM@S57Writer@@QEAAHH@Z
       1914  779 003C9490 ?WriteGeometry@S57Writer@@QEAAHPEAVDDFRecord@@HPEAN11@Z
       1915  77A 003C9670 ?WritePrimitive@S57Writer@@QEAAHPEAVOGRFeature@@@Z
       1916  77B 00158A60 ?WriteProjection@HFADataset@@AEAA?AW4CPLErr@@XZ
       1917  77C 0003C590 ?XMLInit@GDALMultiDomainMetadata@@QEAAHPEAUCPLXMLNode@@H@Z
       1918  77D 0003E4B0 ?XMLInit@GDALPamDataset@@MEAA?AW4CPLErr@@PEAUCPLXMLNode@@PEBD@Z
       1919  77E 00042D40 ?XMLInit@GDALPamRasterBand@@MEAA?AW4CPLErr@@PEAUCPLXMLNode@@PEBD@Z
       1920  77F 00056E70 ?XMLInit@GDALRasterAttributeTable@@QEAA?AW4CPLErr@@PEAUCPLXMLNode@@PEBD@Z
       1921  780 002DA9B0 ?XMLInit@VRTDataset@@UEAA?AW4CPLErr@@PEAUCPLXMLNode@@PEBD@Z
       1922  781 002DBBA0 ?XMLInit@VRTDerivedRasterBand@@UEAA?AW4CPLErr@@PEAUCPLXMLNode@@PEBD@Z
       1923  782 002DED20 ?XMLInit@VRTRasterBand@@UEAA?AW4CPLErr@@PEAUCPLXMLNode@@PEBD@Z
       1924  783 002E0140 ?XMLInit@VRTRawRasterBand@@UEAA?AW4CPLErr@@PEAUCPLXMLNode@@PEBD@Z
       1925  784 002E09D0 ?XMLInit@VRTSourcedRasterBand@@UEAA?AW4CPLErr@@PEAUCPLXMLNode@@PEBD@Z
       1926  785 002E5410 ?XMLInit@VRTWarpedDataset@@UEAA?AW4CPLErr@@PEAUCPLXMLNode@@PEBD@Z
       1927  786 002E5FC0 ?XMLInit@VRTWarpedRasterBand@@UEAA?AW4CPLErr@@PEAUCPLXMLNode@@PEBD@Z
       1928  787 00002A00 ?_Chassign@?$basic_string@DU?$char_traits@D@std@@V?$allocator@D@2@@std@@QEAAX_K0D@Z
       1929  788 00003100 ?_Copy@?$basic_string@DU?$char_traits@D@std@@V?$allocator@D@2@@std@@QEAAX_K0@Z
       1930  789 00002280 ?_Copy_s@?$basic_string@DU?$char_traits@D@std@@V?$allocator@D@2@@std@@QEBA_KPEAD_K11@Z
       1931  78A 00002A30 ?_Eos@?$basic_string@DU?$char_traits@D@std@@V?$allocator@D@2@@std@@QEAAX_K@Z
       1932  78B 00003240 ?_Grow@?$basic_string@DU?$char_traits@D@std@@V?$allocator@D@2@@std@@QEAA_N_K_N@Z
       1933  78C 00002A50 ?_Inside@?$basic_string@DU?$char_traits@D@std@@V?$allocator@D@2@@std@@QEAA_NPEBD@Z
       1934  78D 00002210 ?_Myptr@?$basic_string@DU?$char_traits@D@std@@V?$allocator@D@2@@std@@QEAAPEADXZ
       1935  78E 00002210 ?_Myptr@?$basic_string@DU?$char_traits@D@std@@V?$allocator@D@2@@std@@QEBAPEBDXZ
       1936  78F 00003310 ?_Pdif@?$basic_string@DU?$char_traits@D@std@@V?$allocator@D@2@@std@@SA_KV?$_String_const_iterator@DU?$char_traits@D@std@@V?$allocator@D@2@@2@0@Z
       1937  790 00002A90 ?_Tidy@?$basic_string@DU?$char_traits@D@std@@V?$allocator@D@2@@std@@QEAAX_N_K@Z
       1938  791 004543E0 ?_WkbSize@OGRLinearRing@@EEBAHH@Z
       1939  792 00002130 ?_Xlen@?$basic_string@DU?$char_traits@D@std@@V?$allocator@D@2@@std@@QEBAXXZ
       1940  793 00002150 ?_Xran@?$basic_string@DU?$char_traits@D@std@@V?$allocator@D@2@@std@@QEBAXXZ
       1941  794 00454280 ?_exportToWkb@OGRLinearRing@@EEBAHW4OGRwkbByteOrder@@HPEAE@Z
       1942  795 00453FB0 ?_importFromWkb@OGRLinearRing@@EEAAHW4OGRwkbByteOrder@@HPEAEH@Z
       1943  796 004569E0 ?addGeometry@OGRGeometryCollection@@UEAAHPEBVOGRGeometry@@@Z
       1944  797 00456A40 ?addGeometryDirectly@OGRGeometryCollection@@UEAAHPEAVOGRGeometry@@@Z
       1945  798 00458D50 ?addGeometryDirectly@OGRMultiLineString@@UEAAHPEAVOGRGeometry@@@Z
       1946  799 004583A0 ?addGeometryDirectly@OGRMultiPoint@@UEAAHPEAVOGRGeometry@@@Z
       1947  79A 00457AF0 ?addGeometryDirectly@OGRMultiPolygon@@UEAAHPEAVOGRGeometry@@@Z
       1948  79B 00451F90 ?addPoint@OGRLineString@@QEAAXNN@Z
       1949  79C 00451F60 ?addPoint@OGRLineString@@QEAAXNNN@Z
       1950  79D 00451F30 ?addPoint@OGRLineString@@QEAAXPEAVOGRPoint@@@Z
       1951  79E 00455310 ?addRing@OGRPolygon@@QEAAXPEAVOGRLinearRing@@@Z
       1952  79F 004553A0 ?addRingDirectly@OGRPolygon@@QEAAXPEAVOGRLinearRing@@@Z
       1953  7A0 004522D0 ?addSubLineString@OGRLineString@@QEAAXPEBV1@HH@Z
       1954  7A1 00004D30 ?append@?$basic_string@DU?$char_traits@D@std@@V?$allocator@D@2@@std@@QEAAAEAV12@AEBV12@@Z
       1955  7A2 00003340 ?append@?$basic_string@DU?$char_traits@D@std@@V?$allocator@D@2@@std@@QEAAAEAV12@AEBV12@_K1@Z
       1956  7A3 00004D40 ?append@?$basic_string@DU?$char_traits@D@std@@V?$allocator@D@2@@std@@QEAAAEAV12@PEBD0@Z
       1957  7A4 00004CF0 ?append@?$basic_string@DU?$char_traits@D@std@@V?$allocator@D@2@@std@@QEAAAEAV12@PEBD@Z
       1958  7A5 00003460 ?append@?$basic_string@DU?$char_traits@D@std@@V?$allocator@D@2@@std@@QEAAAEAV12@PEBD_K@Z
       1959  7A6 00004D90 ?append@?$basic_string@DU?$char_traits@D@std@@V?$allocator@D@2@@std@@QEAAAEAV12@V?$_String_const_iterator@DU?$char_traits@D@std@@V?$allocator@D@2@@2@0@Z
       1960  7A7 000035A0 ?append@?$basic_string@DU?$char_traits@D@std@@V?$allocator@D@2@@std@@QEAAAEAV12@_KD@Z
       1961  7A8 0044E000 ?applyRemapper@OGR_SRSNode@@QEAAHPEBDPEAPEAD1HH@Z
       1962  7A9 00469AB0 ?approximateArcAngles@OGRGeometryFactory@@SAPEAVOGRGeometry@@NNNNNNNNN@Z
       1963  7AA 00005170 ?assign@?$basic_string@DU?$char_traits@D@std@@V?$allocator@D@2@@std@@QEAAAEAV12@$$QEAV12@@Z
       1964  7AB 000050C0 ?assign@?$basic_string@DU?$char_traits@D@std@@V?$allocator@D@2@@std@@QEAAAEAV12@AEBV12@@Z
       1965  7AC 000036B0 ?assign@?$basic_string@DU?$char_traits@D@std@@V?$allocator@D@2@@std@@QEAAAEAV12@AEBV12@_K1@Z
       1966  7AD 00004DE0 ?assign@?$basic_string@DU?$char_traits@D@std@@V?$allocator@D@2@@std@@QEAAAEAV12@PEBD0@Z
       1967  7AE 000038F0 ?assign@?$basic_string@DU?$char_traits@D@std@@V?$allocator@D@2@@std@@QEAAAEAV12@PEBD@Z
       1968  7AF 000037C0 ?assign@?$basic_string@DU?$char_traits@D@std@@V?$allocator@D@2@@std@@QEAAAEAV12@PEBD_K@Z
       1969  7B0 00004E40 ?assign@?$basic_string@DU?$char_traits@D@std@@V?$allocator@D@2@@std@@QEAAAEAV12@V?$_String_const_iterator@DU?$char_traits@D@std@@V?$allocator@D@2@@2@0@Z
       1970  7B1 00003920 ?assign@?$basic_string@DU?$char_traits@D@std@@V?$allocator@D@2@@std@@QEAAAEAV12@_KD@Z
       1971  7B2 0044EC40 ?assignSpatialReference@OGRGeometry@@QEAAXPEAVOGRSpatialReference@@@Z
       1972  7B3 000021C0 ?at@?$basic_string@DU?$char_traits@D@std@@V?$allocator@D@2@@std@@QEAAAEAD_K@Z
       1973  7B4 000021C0 ?at@?$basic_string@DU?$char_traits@D@std@@V?$allocator@D@2@@std@@QEBAAEBD_K@Z
       1974  7B5 0091B000 ?bGenerate_DB2_V72_BYTE_ORDER@OGRGeometry@@2HA
       1975  7B6 00004AA0 ?back@?$basic_string@DU?$char_traits@D@std@@V?$allocator@D@2@@std@@QEAAAEADXZ
       1976  7B7 00004AA0 ?back@?$basic_string@DU?$char_traits@D@std@@V?$allocator@D@2@@std@@QEBAAEBDXZ
       1977  7B8 000021A0 ?begin@?$basic_string@DU?$char_traits@D@std@@V?$allocator@D@2@@std@@QEAA?AV?$_String_iterator@DU?$char_traits@D@std@@V?$allocator@D@2@@2@XZ
       1978  7B9 000021A0 ?begin@?$basic_string@DU?$char_traits@D@std@@V?$allocator@D@2@@std@@QEBA?AV?$_String_const_iterator@DU?$char_traits@D@std@@V?$allocator@D@2@@2@XZ
       1979  7BA 00002210 ?c_str@?$basic_string@DU?$char_traits@D@std@@V?$allocator@D@2@@std@@QEBAPEBDXZ
       1980  7BB 003CDBB0 ?capacity@?$basic_string@DU?$char_traits@D@std@@V?$allocator@D@2@@std@@QEBA_KXZ
       1981  7BC 000021A0 ?cbegin@?$basic_string@DU?$char_traits@D@std@@V?$allocator@D@2@@std@@QEBA?AV?$_String_const_iterator@DU?$char_traits@D@std@@V?$allocator@D@2@@2@XZ
       1982  7BD 00002C70 ?cend@?$basic_string@DU?$char_traits@D@std@@V?$allocator@D@2@@std@@QEBA?AV?$_String_const_iterator@DU?$char_traits@D@std@@V?$allocator@D@2@@2@XZ
       1983  7BE 00002C50 ?clear@?$basic_string@DU?$char_traits@D@std@@V?$allocator@D@2@@std@@QEAAXXZ
       1984  7BF 00456820 ?clone@OGRGeometryCollection@@UEBAPEAVOGRGeometry@@XZ
       1985  7C0 00453A50 ?clone@OGRLineString@@UEBAPEAVOGRGeometry@@XZ
       1986  7C1 00454400 ?clone@OGRLinearRing@@UEBAPEAVOGRGeometry@@XZ
       1987  7C2 00458DB0 ?clone@OGRMultiLineString@@UEBAPEAVOGRGeometry@@XZ
       1988  7C3 00458400 ?clone@OGRMultiPoint@@UEBAPEAVOGRGeometry@@XZ
       1989  7C4 00457B50 ?clone@OGRMultiPolygon@@UEBAPEAVOGRGeometry@@XZ
       1990  7C5 00450F90 ?clone@OGRPoint@@UEBAPEAVOGRGeometry@@XZ
       1991  7C6 00456670 ?clone@OGRPolygon@@UEBAPEAVOGRGeometry@@XZ
       1992  7C7 00450BA0 ?closeRings@OGRGeometry@@UEAAXXZ
       1993  7C8 004576A0 ?closeRings@OGRGeometryCollection@@UEAAXXZ
       1994  7C9 00454A10 ?closeRings@OGRLinearRing@@UEAAXXZ
       1995  7CA 00456370 ?closeRings@OGRPolygon@@UEAAXXZ
       1996  7CB 00002F50 ?compare@?$basic_string@DU?$char_traits@D@std@@V?$allocator@D@2@@std@@QEBAHAEBV12@@Z
       1997  7CC 00003090 ?compare@?$basic_string@DU?$char_traits@D@std@@V?$allocator@D@2@@std@@QEBAHPEBD@Z
       1998  7CD 00002FD0 ?compare@?$basic_string@DU?$char_traits@D@std@@V?$allocator@D@2@@std@@QEBAH_K0AEBV12@00@Z
       1999  7CE 00004B40 ?compare@?$basic_string@DU?$char_traits@D@std@@V?$allocator@D@2@@std@@QEBAH_K0AEBV12@@Z
       2000  7CF 00002960 ?compare@?$basic_string@DU?$char_traits@D@std@@V?$allocator@D@2@@std@@QEBAH_K0PEBD0@Z
       2001  7D0 000030D0 ?compare@?$basic_string@DU?$char_traits@D@std@@V?$allocator@D@2@@std@@QEBAH_K0PEBD@Z
       2002  7D1 00002230 ?copy@?$basic_string@DU?$char_traits@D@std@@V?$allocator@D@2@@std@@QEBA_KPEAD_K1@Z
       2003  7D2 00002C70 ?crbegin@?$basic_string@DU?$char_traits@D@std@@V?$allocator@D@2@@std@@QEBA?AV?$reverse_iterator@V?$_String_const_iterator@DU?$char_traits@D@std@@V?$allocator@D@2@@std@@@2@XZ
       2004  7D3 00468470 ?createFromFgf@OGRGeometryFactory@@SAHPEAEPEAVOGRSpatialReference@@PEAPEAVOGRGeometry@@HPEAH@Z
       2005  7D4 00469EE0 ?createFromGEOS@OGRGeometryFactory@@SAPEAVOGRGeometry@@PEAUGEOSGeom_t@@@Z
       2006  7D5 00468440 ?createFromGML@OGRGeometryFactory@@SAPEAVOGRGeometry@@PEBD@Z
       2007  7D6 00469D80 ?createFromWkb@OGRGeometryFactory@@SAHPEAEPEAVOGRSpatialReference@@PEAPEAVOGRGeometry@@H@Z
       2008  7D7 004677B0 ?createFromWkt@OGRGeometryFactory@@SAHPEAPEADPEAVOGRSpatialReference@@PEAPEAVOGRGeometry@@@Z
       2009  7D8 00467A00 ?createGeometry@OGRGeometryFactory@@SAPEAVOGRGeometry@@W4OGRwkbGeometryType@@@Z
       2010  7D9 000021A0 ?crend@?$basic_string@DU?$char_traits@D@std@@V?$allocator@D@2@@std@@QEBA?AV?$reverse_iterator@V?$_String_const_iterator@DU?$char_traits@D@std@@V?$allocator@D@2@@std@@@2@XZ
       2011  7DA 00002210 ?data@?$basic_string@DU?$char_traits@D@std@@V?$allocator@D@2@@std@@QEBAPEBDXZ
       2012  7DB 00467BF0 ?destroyGeometry@OGRGeometryFactory@@SAXPEAVOGRGeometry@@@Z
       2013  7DC 0044E910 ?dumpReadable@OGRGeometry@@UEBAXPEAU_iobuf@@PEBDPEAPEAD@Z
       2014  7DD 00002120 ?empty@?$basic_string@DU?$char_traits@D@std@@V?$allocator@D@2@@std@@QEBA_NXZ
       2015  7DE 004567A0 ?empty@OGRGeometryCollection@@UEAAXXZ
       2016  7DF 00453B00 ?empty@OGRLineString@@UEAAXXZ
       2017  7E0 00451050 ?empty@OGRPoint@@UEAAXXZ
       2018  7E1 00455100 ?empty@OGRPolygon@@UEAAXXZ
       2019  7E2 00002C70 ?end@?$basic_string@DU?$char_traits@D@std@@V?$allocator@D@2@@std@@QEAA?AV?$_String_iterator@DU?$char_traits@D@std@@V?$allocator@D@2@@2@XZ
       2020  7E3 00002C70 ?end@?$basic_string@DU?$char_traits@D@std@@V?$allocator@D@2@@std@@QEBA?AV?$_String_const_iterator@DU?$char_traits@D@std@@V?$allocator@D@2@@2@XZ
       2021  7E4 00004010 ?erase@?$basic_string@DU?$char_traits@D@std@@V?$allocator@D@2@@std@@QEAA?AV?$_String_iterator@DU?$char_traits@D@std@@V?$allocator@D@2@@2@V?$_String_const_iterator@DU?$char_traits@D@std@@V?$allocator@D@2@@2@0@Z
       2022  7E5 00003FA0 ?erase@?$basic_string@DU?$char_traits@D@std@@V?$allocator@D@2@@std@@QEAA?AV?$_String_iterator@DU?$char_traits@D@std@@V?$allocator@D@2@@2@V?$_String_const_iterator@DU?$char_traits@D@std@@V?$allocator@D@2@@2@@Z
       2023  7E6 00002BB0 ?erase@?$basic_string@DU?$char_traits@D@std@@V?$allocator@D@2@@std@@QEAAAEAV12@_K0@Z
       2024  7E7 0046FEA0 ?exportToERM@OGRSpatialReference@@QEAAHPEAD00@Z
       2025  7E8 0044FCC0 ?exportToGEOS@OGRGeometry@@UEBAPEAUGEOSGeom_t@@XZ
       2026  7E9 0044FC70 ?exportToGML@OGRGeometry@@UEBAPEADPEBQEBD@Z
       2027  7EA 0044FC90 ?exportToJson@OGRGeometry@@UEBAPEADXZ
       2028  7EB 0044FC80 ?exportToKML@OGRGeometry@@UEBAPEADXZ
       2029  7EC 004472A0 ?exportToMICoordSys@OGRSpatialReference@@QEBAHPEAPEAD@Z
       2030  7ED 00479D10 ?exportToPCI@OGRSpatialReference@@QEBAHPEAPEAD0PEAPEAN@Z
       2031  7EE 0047CA10 ?exportToPanorama@OGRSpatialReference@@QEBAHPEAJ000PEAN@Z
       2032  7EF 00447590 ?exportToPrettyWkt@OGRSpatialReference@@QEBAHPEAPEADH@Z
       2033  7F0 0044DC50 ?exportToPrettyWkt@OGR_SRSNode@@QEBAHPEAPEADH@Z
       2034  7F1 004723B0 ?exportToProj4@OGRSpatialReference@@QEBAHPEAPEAD@Z
       2035  7F2 004703C0 ?exportToUSGS@OGRSpatialReference@@QEBAHPEAJ0PEAPEAN0@Z
       2036  7F3 00456E60 ?exportToWkb@OGRGeometryCollection@@UEBAHW4OGRwkbByteOrder@@PEAE@Z
       2037  7F4 00452920 ?exportToWkb@OGRLineString@@UEBAHW4OGRwkbByteOrder@@PEAE@Z
       2038  7F5 00453FA0 ?exportToWkb@OGRLinearRing@@UEBAHW4OGRwkbByteOrder@@PEAE@Z
       2039  7F6 004512C0 ?exportToWkb@OGRPoint@@UEBAHW4OGRwkbByteOrder@@PEAE@Z
       2040  7F7 00455720 ?exportToWkb@OGRPolygon@@UEBAHW4OGRwkbByteOrder@@PEAE@Z
       2041  7F8 004571F0 ?exportToWkt@OGRGeometryCollection@@UEBAHPEAPEAD@Z
       2042  7F9 00453BE0 ?exportToWkt@OGRLineString@@UEBAHPEAPEAD@Z
       2043  7FA 004591E0 ?exportToWkt@OGRMultiLineString@@UEBAHPEAPEAD@Z
       2044  7FB 004584C0 ?exportToWkt@OGRMultiPoint@@UEBAHPEAPEAD@Z
       2045  7FC 00458060 ?exportToWkt@OGRMultiPolygon@@UEBAHPEAPEAD@Z
       2046  7FD 004516C0 ?exportToWkt@OGRPoint@@UEBAHPEAPEAD@Z
       2047  7FE 00455C60 ?exportToWkt@OGRPolygon@@UEBAHPEAPEAD@Z
       2048  7FF 00442F80 ?exportToWkt@OGRSpatialReference@@QEBAHPEAPEAD@Z
       2049  800 0044DA70 ?exportToWkt@OGR_SRSNode@@QEBAHPEAPEAD@Z
       2050  801 0045E610 ?exportToXML@OGRSpatialReference@@QEBAHPEAPEADPEBD@Z
       2051  802 00002CB0 ?find@?$basic_string@DU?$char_traits@D@std@@V?$allocator@D@2@@std@@QEBA_KAEBV12@_K@Z
       2052  803 00002660 ?find@?$basic_string@DU?$char_traits@D@std@@V?$allocator@D@2@@std@@QEBA_KD_K@Z
       2053  804 000022E0 ?find@?$basic_string@DU?$char_traits@D@std@@V?$allocator@D@2@@std@@QEBA_KPEBD_K1@Z
       2054  805 000023D0 ?find@?$basic_string@DU?$char_traits@D@std@@V?$allocator@D@2@@std@@QEBA_KPEBD_K@Z
       2055  806 00002DD0 ?find_first_not_of@?$basic_string@DU?$char_traits@D@std@@V?$allocator@D@2@@std@@QEBA_KAEBV12@_K@Z
       2056  807 00002840 ?find_first_not_of@?$basic_string@DU?$char_traits@D@std@@V?$allocator@D@2@@std@@QEBA_KD_K@Z
       2057  808 00002760 ?find_first_not_of@?$basic_string@DU?$char_traits@D@std@@V?$allocator@D@2@@std@@QEBA_KPEBD_K1@Z
       2058  809 00002810 ?find_first_not_of@?$basic_string@DU?$char_traits@D@std@@V?$allocator@D@2@@std@@QEBA_KPEBD_K@Z
       2059  80A 00002CF0 ?find_first_of@?$basic_string@DU?$char_traits@D@std@@V?$allocator@D@2@@std@@QEBA_KAEBV12@_K@Z
       2060  80B 00002660 ?find_first_of@?$basic_string@DU?$char_traits@D@std@@V?$allocator@D@2@@std@@QEBA_KD_K@Z
       2061  80C 00002580 ?find_first_of@?$basic_string@DU?$char_traits@D@std@@V?$allocator@D@2@@std@@QEBA_KPEBD_K1@Z
       2062  80D 00002630 ?find_first_of@?$basic_string@DU?$char_traits@D@std@@V?$allocator@D@2@@std@@QEBA_KPEBD_K@Z
       2063  80E 00002E90 ?find_last_not_of@?$basic_string@DU?$char_traits@D@std@@V?$allocator@D@2@@std@@QEBA_KAEBV12@_K@Z
       2064  80F 00002940 ?find_last_not_of@?$basic_string@DU?$char_traits@D@std@@V?$allocator@D@2@@std@@QEBA_KD_K@Z
       2065  810 00002860 ?find_last_not_of@?$basic_string@DU?$char_traits@D@std@@V?$allocator@D@2@@std@@QEBA_KPEBD_K1@Z
       2066  811 00002910 ?find_last_not_of@?$basic_string@DU?$char_traits@D@std@@V?$allocator@D@2@@std@@QEBA_KPEBD_K@Z
       2067  812 00002DB0 ?find_last_of@?$basic_string@DU?$char_traits@D@std@@V?$allocator@D@2@@std@@QEBA_KAEBV12@_K@Z
       2068  813 000024F0 ?find_last_of@?$basic_string@DU?$char_traits@D@std@@V?$allocator@D@2@@std@@QEBA_KD_K@Z
       2069  814 00002680 ?find_last_of@?$basic_string@DU?$char_traits@D@std@@V?$allocator@D@2@@std@@QEBA_KPEBD_K1@Z
       2070  815 00002730 ?find_last_of@?$basic_string@DU?$char_traits@D@std@@V?$allocator@D@2@@std@@QEBA_KPEBD_K@Z
       2071  816 00456910 ?flattenTo2D@OGRGeometryCollection@@UEAAXXZ
       2072  817 00453A10 ?flattenTo2D@OGRLineString@@UEAAXXZ
       2073  818 004510B0 ?flattenTo2D@OGRPoint@@UEAAXXZ
       2074  819 004551D0 ?flattenTo2D@OGRPolygon@@UEAAXXZ
       2075  81A 00468060 ?forceToMultiLineString@OGRGeometryFactory@@SAPEAVOGRGeometry@@PEAV2@@Z
       2076  81B 00467EF0 ?forceToMultiPoint@OGRGeometryFactory@@SAPEAVOGRGeometry@@PEAV2@@Z
       2077  81C 00467D80 ?forceToMultiPolygon@OGRGeometryFactory@@SAPEAVOGRGeometry@@PEAV2@@Z
       2078  81D 00467C30 ?forceToPolygon@OGRGeometryFactory@@SAPEAVOGRGeometry@@PEAV2@@Z
       2079  81E 00002210 ?front@?$basic_string@DU?$char_traits@D@std@@V?$allocator@D@2@@std@@QEAAAEADXZ
       2080  81F 00002210 ?front@?$basic_string@DU?$char_traits@D@std@@V?$allocator@D@2@@std@@QEBAAEBDXZ
       2081  820 00450010 ?getBoundary@OGRGeometry@@UEBAPEAV1@XZ
       2082  821 0044F130 ?getCoordinateDimension@OGRGeometry@@UEBAHXZ
       2083  822 00456900 ?getDimension@OGRGeometryCollection@@UEBAHXZ
       2084  823 00451AD0 ?getDimension@OGRLineString@@UEBAHXZ
       2085  824 00451070 ?getDimension@OGRPoint@@UEBAHXZ
       2086  825 004551C0 ?getDimension@OGRPolygon@@UEBAHXZ
       2087  826 004573F0 ?getEnvelope@OGRGeometryCollection@@UEBAXPEAVOGREnvelope@@@Z
       2088  827 004530C0 ?getEnvelope@OGRLineString@@UEBAXPEAVOGREnvelope@@@Z
       2089  828 00451760 ?getEnvelope@OGRPoint@@UEBAXPEAVOGREnvelope@@@Z
       2090  829 00455FC0 ?getEnvelope@OGRPolygon@@UEBAXPEAVOGREnvelope@@@Z
       2091  82A 00455250 ?getExteriorRing@OGRPolygon@@QEAAPEAVOGRLinearRing@@XZ
       2092  82B 00455270 ?getExteriorRing@OGRPolygon@@QEBAPEBVOGRLinearRing@@XZ
       2093  82C 00468450 ?getGEOSGeometryFactory@OGRGeometryFactory@@SAPEAXXZ
       2094  82D 00456980 ?getGeometryName@OGRGeometryCollection@@UEBAPEBDXZ
       2095  82E 00451AC0 ?getGeometryName@OGRLineString@@UEBAPEBDXZ
       2096  82F 00453F70 ?getGeometryName@OGRLinearRing@@UEBAPEBDXZ
       2097  830 00458D40 ?getGeometryName@OGRMultiLineString@@UEBAPEBDXZ
       2098  831 00458390 ?getGeometryName@OGRMultiPoint@@UEBAPEBDXZ
       2099  832 00457AE0 ?getGeometryName@OGRMultiPolygon@@UEBAPEBDXZ
       2100  833 004510A0 ?getGeometryName@OGRPoint@@UEBAPEBDXZ
       2101  834 00455240 ?getGeometryName@OGRPolygon@@UEBAPEBDXZ
       2102  835 004569A0 ?getGeometryRef@OGRGeometryCollection@@QEAAPEAVOGRGeometry@@H@Z
       2103  836 004569C0 ?getGeometryRef@OGRGeometryCollection@@QEBAPEBVOGRGeometry@@H@Z
       2104  837 004568D0 ?getGeometryType@OGRGeometryCollection@@UEBA?AW4OGRwkbGeometryType@@XZ
       2105  838 00451A90 ?getGeometryType@OGRLineString@@UEBA?AW4OGRwkbGeometryType@@XZ
       2106  839 00458D10 ?getGeometryType@OGRMultiLineString@@UEBA?AW4OGRwkbGeometryType@@XZ
       2107  83A 00458360 ?getGeometryType@OGRMultiPoint@@UEBA?AW4OGRwkbGeometryType@@XZ
       2108  83B 00457AB0 ?getGeometryType@OGRMultiPolygon@@UEBA?AW4OGRwkbGeometryType@@XZ
       2109  83C 00451080 ?getGeometryType@OGRPoint@@UEBA?AW4OGRwkbGeometryType@@XZ
       2110  83D 00455190 ?getGeometryType@OGRPolygon@@UEBA?AW4OGRwkbGeometryType@@XZ
       2111  83E 004552B0 ?getInteriorRing@OGRPolygon@@QEAAPEAVOGRLinearRing@@H@Z
       2112  83F 004552E0 ?getInteriorRing@OGRPolygon@@QEBAPEBVOGRLinearRing@@H@Z
       2113  840 00456990 ?getNumGeometries@OGRGeometryCollection@@QEBAHXZ
       2114  841 00455290 ?getNumInteriorRings@OGRPolygon@@QEBAHXZ
       2115  842 0002EA60 ?getNumPoints@OGRLineString@@QEBAHXZ
       2116  843 00451BA0 ?getPoint@OGRLineString@@QEBAXHPEAVOGRPoint@@@Z
       2117  844 00452260 ?getPoints@OGRLineString@@QEBAXPEAVOGRRawPoint@@PEAN@Z
       2118  845 004A8960 ?getSpatialReference@OGRGeometry@@QEBAPEAVOGRSpatialReference@@XZ
       2119  846 000389C0 ?getX@OGRLineString@@QEBANH@Z
       2120  847 000387A0 ?getX@OGRPoint@@QEBANXZ
       2121  848 000389E0 ?getY@OGRLineString@@QEBANH@Z
       2122  849 000387B0 ?getY@OGRPoint@@QEBANXZ
       2123  84A 00451C40 ?getZ@OGRLineString@@QEBANH@Z
       2124  84B 000387C0 ?getZ@OGRPoint@@QEBANXZ
       2125  84C 00457820 ?get_Area@OGRGeometryCollection@@UEBANXZ
       2126  84D 00454AE0 ?get_Area@OGRLinearRing@@UEBANXZ
       2127  84E 004582D0 ?get_Area@OGRMultiPolygon@@UEBANXZ
       2128  84F 004563D0 ?get_Area@OGRPolygon@@UEBANXZ
       2129  850 00451950 ?get_IsClosed@OGRCurve@@UEBAHXZ
       2130  851 00457780 ?get_Length@OGRGeometryCollection@@UEBANXZ
       2131  852 00452D30 ?get_Length@OGRLineString@@UEBANXZ
       2132  853 000029F0 ?get_allocator@?$basic_string@DU?$char_traits@D@std@@V?$allocator@D@2@@std@@QEBA?AV?$allocator@D@2@XZ
       2133  854 00468460 ?haveGEOS@OGRGeometryFactory@@SAHXZ
       2134  855 00005590 ?ifind@CPLString@@QEBA_KAEBV?$basic_string@DU?$char_traits@D@std@@V?$allocator@D@2@@std@@_K@Z
       2135  856 000054D0 ?ifind@CPLString@@QEBA_KPEBD_K@Z
       2136  857 00487CF0 ?importFromDict@OGRSpatialReference@@QEAAHPEBD0@Z
       2137  858 0046F8B0 ?importFromEPSG@OGRSpatialReference@@QEAAHH@Z
       2138  859 0046F630 ?importFromEPSGA@OGRSpatialReference@@QEAAHH@Z
       2139  85A 0046FD10 ?importFromERM@OGRSpatialReference@@QEAAHPEBD00@Z
       2140  85B 004620D0 ?importFromESRI@OGRSpatialReference@@QEAAHPEAPEAD@Z
       2141  85C 004472E0 ?importFromMICoordSys@OGRSpatialReference@@QEAAHPEBD@Z
       2142  85D 00463180 ?importFromOzi@OGRSpatialReference@@QEAAHPEBD00@Z
       2143  85E 0047B490 ?importFromPCI@OGRSpatialReference@@QEAAHPEBD0PEAN@Z
       2144  85F 0047D6E0 ?importFromPanorama@OGRSpatialReference@@QEAAHJJJPEAN@Z
       2145  860 00476B00 ?importFromProj4@OGRSpatialReference@@QEAAHPEBD@Z
       2146  861 0044C990 ?importFromURN@OGRSpatialReference@@QEAAHPEBD@Z
       2147  862 004713C0 ?importFromUSGS@OGRSpatialReference@@QEAAHJJPEANJH@Z
       2148  863 0044D420 ?importFromUrl@OGRSpatialReference@@QEAAHPEBD@Z
       2149  864 0044C5E0 ?importFromWMSAUTO@OGRSpatialReference@@QEAAHPEBD@Z
       2150  865 00456BF0 ?importFromWkb@OGRGeometryCollection@@UEAAHPEAEH@Z
       2151  866 004525D0 ?importFromWkb@OGRLineString@@UEAAHPEAEH@Z
       2152  867 00453F90 ?importFromWkb@OGRLinearRing@@UEAAHPEAEH@Z
       2153  868 00451110 ?importFromWkb@OGRPoint@@UEAAHPEAEH@Z
       2154  869 00455490 ?importFromWkb@OGRPolygon@@UEAAHPEAEH@Z
       2155  86A 00456F70 ?importFromWkt@OGRGeometryCollection@@UEAAHPEAPEAD@Z
       2156  86B 00452AB0 ?importFromWkt@OGRLineString@@UEAAHPEAPEAD@Z
       2157  86C 00458E70 ?importFromWkt@OGRMultiLineString@@UEAAHPEAPEAD@Z
       2158  86D 00458950 ?importFromWkt@OGRMultiPoint@@UEAAHPEAPEAD@Z
       2159  86E 00457C10 ?importFromWkt@OGRMultiPolygon@@UEAAHPEAPEAD@Z
       2160  86F 00451410 ?importFromWkt@OGRPoint@@UEAAHPEAPEAD@Z
       2161  870 00455850 ?importFromWkt@OGRPolygon@@UEAAHPEAPEAD@Z
       2162  871 00443050 ?importFromWkt@OGRSpatialReference@@QEAAHPEAPEAD@Z
       2163  872 0044E510 ?importFromWkt@OGR_SRSNode@@QEAAHPEAPEAD@Z
       2164  873 004586C0 ?importFromWkt_Bracketed@OGRMultiPoint@@AEAAHPEAPEADHH@Z
       2165  874 0045F3B0 ?importFromXML@OGRSpatialReference@@QEAAHPEBD@Z
       2166  875 00004EB0 ?insert@?$basic_string@DU?$char_traits@D@std@@V?$allocator@D@2@@std@@QEAA?AV?$_String_iterator@DU?$char_traits@D@std@@V?$allocator@D@2@@2@V?$_String_const_iterator@DU?$char_traits@D@std@@V?$allocator@D@2@@2@@Z
       2167  876 00003F00 ?insert@?$basic_string@DU?$char_traits@D@std@@V?$allocator@D@2@@std@@QEAA?AV?$_String_iterator@DU?$char_traits@D@std@@V?$allocator@D@2@@2@V?$_String_const_iterator@DU?$char_traits@D@std@@V?$allocator@D@2@@2@D@Z
       2168  877 00003DA0 ?insert@?$basic_string@DU?$char_traits@D@std@@V?$allocator@D@2@@std@@QEAAAEAV12@_K0D@Z
       2169  878 00003A20 ?insert@?$basic_string@DU?$char_traits@D@std@@V?$allocator@D@2@@std@@QEAAAEAV12@_KAEBV12@00@Z
       2170  879 00004E90 ?insert@?$basic_string@DU?$char_traits@D@std@@V?$allocator@D@2@@std@@QEAAAEAV12@_KAEBV12@@Z
       2171  87A 00003BD0 ?insert@?$basic_string@DU?$char_traits@D@std@@V?$allocator@D@2@@std@@QEAAAEAV12@_KPEBD0@Z
       2172  87B 00003D70 ?insert@?$basic_string@DU?$char_traits@D@std@@V?$allocator@D@2@@std@@QEAAAEAV12@_KPEBD@Z
       2173  87C 00004F40 ?insert@?$basic_string@DU?$char_traits@D@std@@V?$allocator@D@2@@std@@QEAAXV?$_String_const_iterator@DU?$char_traits@D@std@@V?$allocator@D@2@@2@00@Z
       2174  87D 00004F20 ?insert@?$basic_string@DU?$char_traits@D@std@@V?$allocator@D@2@@std@@QEAAXV?$_String_const_iterator@DU?$char_traits@D@std@@V?$allocator@D@2@@2@PEBD1@Z
       2175  87E 00003F70 ?insert@?$basic_string@DU?$char_traits@D@std@@V?$allocator@D@2@@std@@QEAAXV?$_String_const_iterator@DU?$char_traits@D@std@@V?$allocator@D@2@@2@_KD@Z
       2176  87F 004544A0 ?isClockwise@OGRLinearRing@@UEBAHXZ
       2177  880 00454C20 ?isPointInRing@OGRLinearRing@@QEBAHPEBVOGRPoint@@H@Z
       2178  881 00454F80 ?isPointOnRingBoundary@OGRLinearRing@@QEBAHPEBVOGRPoint@@H@Z
       2179  882 003CDBC0 ?length@?$basic_string@DU?$char_traits@D@std@@V?$allocator@D@2@@std@@QEBA_KXZ
       2180  883 00002220 ?max_size@?$basic_string@DU?$char_traits@D@std@@V?$allocator@D@2@@std@@QEBA_KXZ
       2181  884 0045FB80 ?morphFromESRI@OGRSpatialReference@@QEAAHXZ
       2182  885 00460DA0 ?morphToESRI@OGRSpatialReference@@QEAAHXZ
       2183  886 0058B1F8 ?npos@?$basic_string@DU?$char_traits@D@std@@V?$allocator@D@2@@std@@2_KB
       2184  887 00469FA0 ?organizePolygons@OGRGeometryFactory@@SAPEAVOGRGeometry@@PEAPEAV2@HPEAHPEAPEBD@Z
       2185  888 00002CA0 ?pop_back@?$basic_string@DU?$char_traits@D@std@@V?$allocator@D@2@@std@@QEAAXXZ
       2186  889 00004A50 ?push_back@?$basic_string@DU?$char_traits@D@std@@V?$allocator@D@2@@std@@QEAAXD@Z
       2187  88A 00002C70 ?rbegin@?$basic_string@DU?$char_traits@D@std@@V?$allocator@D@2@@std@@QEAA?AV?$reverse_iterator@V?$_String_iterator@DU?$char_traits@D@std@@V?$allocator@D@2@@std@@@2@XZ
       2188  88B 00002C70 ?rbegin@?$basic_string@DU?$char_traits@D@std@@V?$allocator@D@2@@std@@QEBA?AV?$reverse_iterator@V?$_String_const_iterator@DU?$char_traits@D@std@@V?$allocator@D@2@@std@@@2@XZ
       2189  88C 00456AA0 ?removeGeometry@OGRGeometryCollection@@UEAAHHH@Z
       2190  88D 000021A0 ?rend@?$basic_string@DU?$char_traits@D@std@@V?$allocator@D@2@@std@@QEAA?AV?$reverse_iterator@V?$_String_iterator@DU?$char_traits@D@std@@V?$allocator@D@2@@std@@@2@XZ
       2191  88E 000021A0 ?rend@?$basic_string@DU?$char_traits@D@std@@V?$allocator@D@2@@std@@QEBA?AV?$reverse_iterator@V?$_String_const_iterator@DU?$char_traits@D@std@@V?$allocator@D@2@@std@@@2@XZ
       2192  88F 000049B0 ?replace@?$basic_string@DU?$char_traits@D@std@@V?$allocator@D@2@@std@@QEAAAEAV12@V?$_String_const_iterator@DU?$char_traits@D@std@@V?$allocator@D@2@@2@000@Z
       2193  890 00004F80 ?replace@?$basic_string@DU?$char_traits@D@std@@V?$allocator@D@2@@std@@QEAAAEAV12@V?$_String_const_iterator@DU?$char_traits@D@std@@V?$allocator@D@2@@2@0AEBV12@@Z
       2194  891 00004920 ?replace@?$basic_string@DU?$char_traits@D@std@@V?$allocator@D@2@@std@@QEAAAEAV12@V?$_String_const_iterator@DU?$char_traits@D@std@@V?$allocator@D@2@@2@0PEBD1@Z
       2195  892 00004870 ?replace@?$basic_string@DU?$char_traits@D@std@@V?$allocator@D@2@@std@@QEAAAEAV12@V?$_String_const_iterator@DU?$char_traits@D@std@@V?$allocator@D@2@@2@0PEBD@Z
       2196  893 00004820 ?replace@?$basic_string@DU?$char_traits@D@std@@V?$allocator@D@2@@std@@QEAAAEAV12@V?$_String_const_iterator@DU?$char_traits@D@std@@V?$allocator@D@2@@2@0PEBD_K@Z
       2197  894 000048D0 ?replace@?$basic_string@DU?$char_traits@D@std@@V?$allocator@D@2@@std@@QEAAAEAV12@V?$_String_const_iterator@DU?$char_traits@D@std@@V?$allocator@D@2@@2@0_KD@Z
       2198  895 00004650 ?replace@?$basic_string@DU?$char_traits@D@std@@V?$allocator@D@2@@std@@QEAAAEAV12@_K00D@Z
       2199  896 00004080 ?replace@?$basic_string@DU?$char_traits@D@std@@V?$allocator@D@2@@std@@QEAAAEAV12@_K0AEBV12@00@Z
       2200  897 00004F60 ?replace@?$basic_string@DU?$char_traits@D@std@@V?$allocator@D@2@@std@@QEAAAEAV12@_K0AEBV12@@Z
       2201  898 00004400 ?replace@?$basic_string@DU?$char_traits@D@std@@V?$allocator@D@2@@std@@QEAAAEAV12@_K0PEBD0@Z
       2202  899 00004620 ?replace@?$basic_string@DU?$char_traits@D@std@@V?$allocator@D@2@@std@@QEAAAEAV12@_K0PEBD@Z
       2203  89A 00004AF0 ?reserve@?$basic_string@DU?$char_traits@D@std@@V?$allocator@D@2@@std@@QEAAX_K@Z
       2204  89B 00004FC0 ?resize@?$basic_string@DU?$char_traits@D@std@@V?$allocator@D@2@@std@@QEAAX_K@Z
       2205  89C 00004AD0 ?resize@?$basic_string@DU?$char_traits@D@std@@V?$allocator@D@2@@std@@QEAAX_KD@Z
       2206  89D 00454920 ?reverseWindingOrder@OGRLinearRing@@UEAAXXZ
       2207  89E 00002CD0 ?rfind@?$basic_string@DU?$char_traits@D@std@@V?$allocator@D@2@@std@@QEBA_KAEBV12@_K@Z
       2208  89F 000024F0 ?rfind@?$basic_string@DU?$char_traits@D@std@@V?$allocator@D@2@@std@@QEBA_KD_K@Z
       2209  8A0 00002400 ?rfind@?$basic_string@DU?$char_traits@D@std@@V?$allocator@D@2@@std@@QEBA_KPEBD_K1@Z
       2210  8A1 000024C0 ?rfind@?$basic_string@DU?$char_traits@D@std@@V?$allocator@D@2@@std@@QEBA_KPEBD_K@Z
       2211  8A2 0044F060 ?segmentize@OGRGeometry@@UEAAXN@Z
       2212  8A3 00457970 ?segmentize@OGRGeometryCollection@@UEAAXN@Z
       2213  8A4 00453690 ?segmentize@OGRLineString@@UEAAXN@Z
       2214  8A5 00456560 ?segmentize@OGRPolygon@@UEAAXN@Z
       2215  8A6 0044F190 ?setCoordinateDimension@OGRGeometry@@UEAAXH@Z
       2216  8A7 00457710 ?setCoordinateDimension@OGRGeometryCollection@@UEAAXH@Z
       2217  8A8 00453B40 ?setCoordinateDimension@OGRLineString@@UEAAXH@Z
       2218  8A9 004510D0 ?setCoordinateDimension@OGRPoint@@UEAAXH@Z
       2219  8AA 00456480 ?setCoordinateDimension@OGRPolygon@@UEAAXH@Z
       2220  8AB 00451C70 ?setNumPoints@OGRLineString@@QEAAXH@Z
       2221  8AC 00451EB0 ?setPoint@OGRLineString@@QEAAXHNN@Z
       2222  8AD 00451DA0 ?setPoint@OGRLineString@@QEAAXHNNN@Z
       2223  8AE 00453BB0 ?setPoint@OGRLineString@@QEAAXHPEAVOGRPoint@@@Z
       2224  8AF 004520B0 ?setPoints@OGRLineString@@QEAAXHPEAN00@Z
       2225  8B0 00452000 ?setPoints@OGRLineString@@QEAAXHPEAVOGRRawPoint@@PEAN@Z
       2226  8B1 000387D0 ?setX@OGRPoint@@QEAAXN@Z
       2227  8B2 000387F0 ?setY@OGRPoint@@QEAAXN@Z
       2228  8B3 00038810 ?setZ@OGRPoint@@QEAAXN@Z
       2229  8B4 00005220 ?shrink_to_fit@?$basic_string@DU?$char_traits@D@std@@V?$allocator@D@2@@std@@QEAAXXZ
       2230  8B5 003CDBC0 ?size@?$basic_string@DU?$char_traits@D@std@@V?$allocator@D@2@@std@@QEBA_KXZ
       2231  8B6 00004FE0 ?substr@?$basic_string@DU?$char_traits@D@std@@V?$allocator@D@2@@std@@QEBA?AV12@_K0@Z
       2232  8B7 00005200 ?swap@?$basic_string@DU?$char_traits@D@std@@V?$allocator@D@2@@std@@QEAAX$$QEAV12@@Z
       2233  8B8 000050D0 ?swap@?$basic_string@DU?$char_traits@D@std@@V?$allocator@D@2@@std@@QEAAXAEAV12@@Z
       2234  8B9 00450E90 ?swapXY@OGRGeometry@@UEAAXXZ
       2235  8BA 004579E0 ?swapXY@OGRGeometryCollection@@UEAAXXZ
       2236  8BB 004539C0 ?swapXY@OGRLineString@@UEAAXXZ
       2237  8BC 004518A0 ?swapXY@OGRPoint@@UEAAXXZ
       2238  8BD 004565D0 ?swapXY@OGRPolygon@@UEAAXXZ
       2239  8BE 004575F0 ?transform@OGRGeometryCollection@@UEAAHPEAVOGRCoordinateTransformation@@@Z
       2240  8BF 004533D0 ?transform@OGRLineString@@UEAAHPEAVOGRCoordinateTransformation@@@Z
       2241  8C0 00451820 ?transform@OGRPoint@@UEAAHPEAVOGRCoordinateTransformation@@@Z
       2242  8C1 00456230 ?transform@OGRPolygon@@UEAAHPEAVOGRCoordinateTransformation@@@Z
       2243  8C2 0044EF40 ?transformTo@OGRGeometry@@QEAAHPEAVOGRSpatialReference@@@Z
       2244  8C3 00469950 ?transformWithOptions@OGRGeometryFactory@@SAPEAVOGRGeometry@@PEBV2@PEAVOGRCoordinateTransformation@@PEAPEAD@Z
       2245  8C4 00005720 ?vPrintf@CPLString@@QEAAAEAV1@PEBDPEAD@Z
       2246  8C5 000B0AE0 BSBClose
       2247  8C6 000B0B30 BSBCreate
       2248  8C7 000B0E30 BSBOpen
       2249  8C8 000B05A0 BSBReadScanline
       2250  8C9 000B0C40 BSBWritePCT
       2251  8CA 000B0D10 BSBWriteScanline
       2252  8CB 00012FE0 CPLAcquireMutex
       2253  8CC 0000DED0 CPLAddXMLChild
       2254  8CD 0000DF90 CPLAddXMLSibling
       2255  8CE 0001BDE0 CPLAtof
       2256  8CF 0001BDC0 CPLAtofDelim
       2257  8D0 0001BDF0 CPLAtofM
       2258  8D1 00005AA0 CPLAtomicAdd
       2259  8D2 00005AB0 CPLBase64DecodeInPlace
       2260  8D3 0001B190 CPLBinaryToHex
       2261  8D4 00005C60 CPLCalloc
       2262  8D5 00008130 CPLCheckForFile
       2263  8D6 00016790 CPLCleanTrailingSlash
       2264  8D7 0000E440 CPLCleanXMLElementName
       2265  8D8 00013130 CPLCleanupTLS
       2266  8D9 0000E000 CPLCloneXMLTree
       2267  8DA 000125C0 CPLCloseFileInZip
       2268  8DB 00006E00 CPLCloseShared
       2269  8DC 000125E0 CPLCloseZip
       2270  8DD 00007F90 CPLCopyFile
       2271  8DE 00016AA0 CPLCorrespondingPaths
       2272  8DF 00012EC0 CPLCreateFileInZip
       2273  8E0 00012FC0 CPLCreateMutex
       2274  8E1 00013200 CPLCreateOrAcquireMutex
       2275  8E2 000134E0 CPLCreateThread
       2276  8E3 0000DFC0 CPLCreateXMLElementAndValue
       2277  8E4 0000DA50 CPLCreateXMLNode
       2278  8E5 00012550 CPLCreateZip
       2279  8E6 000065D0 CPLDMSToDec
       2280  8E7 00009630 CPLDebug
       2281  8E8 00007D60 CPLDecToDMS
       2282  8E9 00006970 CPLDecToPackedDMS
       2283  8EA 00009A60 CPLDefaultErrorHandler
       2284  8EB 0000A650 CPLDefaultFindFile
       2285  8EC 00013020 CPLDestroyMutex
       2286  8ED 0000DBB0 CPLDestroyXMLNode
       2287  8EE 00006F80 CPLDumpSharedList
       2288  8EF 0000A320 CPLError
       2289  8F0 000098B0 CPLErrorReset
       2290  8F1 0000A0F0 CPLErrorV
       2291  8F2 0001AB00 CPLEscapeString
       2292  8F3 000166B0 CPLExtractRelativePath
       2293  8F4 00005E00 CPLFGets
       2294  8F5 0000A850 CPLFindFile
       2295  8F6 0000A5F0 CPLFinderClean
       2296  8F7 00018BA0 CPLForceToASCII
       2297  8F8 00016420 CPLFormCIFilename
       2298  8F9 00016280 CPLFormFilename
       2299  8FA 00006490 CPLFreeConfig
       2300  8FB 00016980 CPLGenerateTempFilename
       2301  8FC 00015FA0 CPLGetBasename
       2302  8FD 00006320 CPLGetConfigOption
       2303  8FE 00016160 CPLGetCurrentDir
       2304  8FF 00015E60 CPLGetDirname
       2305  900 0000A940 CPLGetExecPath
       2306  901 00016080 CPLGetExtension
       2307  902 00015F50 CPLGetFilename
       2308  903 000099F0 CPLGetLastErrorMsg
       2309  904 00009910 CPLGetLastErrorNo
       2310  905 00009980 CPLGetLastErrorType
       2311  906 00013040 CPLGetPID
       2312  907 00015D80 CPLGetPath
       2313  908 00006F60 CPLGetSharedList
       2314  909 00001000 CPLGetSymbol
       2315  90A 00013180 CPLGetTLS
       2316  90B 00012FB0 CPLGetThreadingModel
       2317  90C 0001B300 CPLGetValueType
       2318  90D 0000DD40 CPLGetXMLNode
       2319  90E 0000DE50 CPLGetXMLValue
       2320  90F 0000B700 CPLHTTPCleanup
       2321  910 0000B060 CPLHTTPDestroyResult
       2322  911 0000B050 CPLHTTPEnabled
       2323  912 0000B890 CPLHTTPFetch
       2324  913 0000B220 CPLHTTPParseMultipartMime
       2325  914 0000AA40 CPLHashSetDestroy
       2326  915 0000AE90 CPLHashSetEqualPointer
       2327  916 0000AED0 CPLHashSetEqualStr
       2328  917 0000AAD0 CPLHashSetForeach
       2329  918 0000AE80 CPLHashSetHashPointer
       2330  919 0000AEA0 CPLHashSetHashStr
       2331  91A 0000ACC0 CPLHashSetInsert
       2332  91B 0000AD70 CPLHashSetLookup
       2333  91C 0000AF20 CPLHashSetNew
       2334  91D 0000ADA0 CPLHashSetRemove
       2335  91E 0000AA30 CPLHashSetSize
       2336  91F 0001B220 CPLHexToBinary
       2337  920 00016620 CPLIsFilenameRelative
       2338  921 00019AA0 CPLIsUTF8
       2339  922 0000C5B0 CPLListAppend
       2340  923 0000C470 CPLListCount
       2341  924 0000C530 CPLListDestroy
       2342  925 0000C440 CPLListGet
       2343  926 0000C590 CPLListGetData
       2344  927 0000C410 CPLListGetLast
       2345  928 0000C570 CPLListGetNext
       2346  929 0000C630 CPLListInsert
       2347  92A 0000C4A0 CPLListRemove
       2348  92B 000132F0 CPLLockFile
       2349  92C 00009C20 CPLLoggingErrorHandler
       2350  92D 00007320 CPLMalloc
       2351  92E 000080B0 CPLMoveFile
       2352  92F 00006B10 CPLOpenShared
       2353  930 00006890 CPLPackedDMSToDec
       2354  931 0001A8A0 CPLParseNameValue
       2355  932 0000EA70 CPLParseXMLFile
       2356  933 0000E4B0 CPLParseXMLString
       2357  934 0000A080 CPLPopErrorHandler
       2358  935 0000A8C0 CPLPopFileFinder
       2359  936 0000A920 CPLPopFinderLocation
       2360  937 00006250 CPLPrintDouble
       2361  938 00006040 CPLPrintInt32
       2362  939 00006180 CPLPrintPointer
       2363  93A 00005F90 CPLPrintString
       2364  93B 00005FD0 CPLPrintStringFill
       2365  93C 00007C70 CPLPrintTime
       2366  93D 000060E0 CPLPrintUIntBig
       2367  93E 00016840 CPLProjectRelativeFilename
       2368  93F 0000A000 CPLPushErrorHandler
       2369  940 0000A380 CPLPushFileFinder
       2370  941 0000A420 CPLPushFinderLocation
       2371  942 000177F0 CPLQuadTreeCreate
       2372  943 00017990 CPLQuadTreeDestroy
       2373  944 00018A00 CPLQuadTreeDump
       2374  945 00018870 CPLQuadTreeForeach
       2375  946 00017890 CPLQuadTreeGetAdvisedMaxDepth
       2376  947 00018AB0 CPLQuadTreeGetStats
       2377  948 00018B30 CPLQuadTreeInsert
       2378  949 00018760 CPLQuadTreeSearch
       2379  94A 00017910 CPLQuadTreeSetBucketCapacity
       2380  94B 00017900 CPLQuadTreeSetMaxDepth
       2381  94C 00009C00 CPLQuietErrorHandler
       2382  94D 0001CAA0 CPLReadDir
       2383  94E 00007490 CPLReadLine
       2384  94F 00007570 CPLReadLine2L
       2385  950 00008110 CPLReadLineL
       2386  951 00005CD0 CPLRealloc
       2387  952 00019560 CPLRecode
       2388  953 00019840 CPLRecodeFromWChar
       2389  954 00019980 CPLRecodeToWChar
       2390  955 00013010 CPLReleaseMutex
       2391  956 0000DF30 CPLRemoveXMLChild
       2392  957 000161A0 CPLResetExtension
       2393  958 0001A620 CPLSPrintf
       2394  959 00007BB0 CPLScanDouble
       2395  95A 000078C0 CPLScanLong
       2396  95B 00007A90 CPLScanPointer
       2397  95C 00007760 CPLScanString
       2398  95D 000079F0 CPLScanUIntBig
       2399  95E 00007950 CPLScanULong
       2400  95F 0000DC30 CPLSearchXMLNode
       2401  960 0000D9E0 CPLSerializeXMLTree
       2402  961 0000E350 CPLSerializeXMLTreeToFile
       2403  962 000063D0 CPLSetConfigOption
       2404  963 00009F30 CPLSetErrorHandler
       2405  964 00013560 CPLSetTLS
       2406  965 000131A0 CPLSetTLSWithFreeFunc
       2407  966 00006440 CPLSetThreadLocalConfigOption
       2408  967 0000E0C0 CPLSetXMLValue
       2409  968 00013060 CPLSleep
       2410  969 00006510 CPLStat
       2411  96A 00005D40 CPLStrdup
       2412  96B 00006A40 CPLStringToComplex
       2413  96C 0000E240 CPLStripXMLNamespace
       2414  96D 0001B4C0 CPLStrlcat
       2415  96E 0001B450 CPLStrlcpy
       2416  96F 00005DA0 CPLStrlwr
       2417  970 0001B560 CPLStrnlen
       2418  971 0001BD70 CPLStrtod
       2419  972 0001BC60 CPLStrtodDelim
       2420  973 0001BDA0 CPLStrtof
       2421  974 0001BD80 CPLStrtofDelim
       2422  975 0001AE70 CPLUnescapeString
       2423  976 00007070 CPLUnlinkTree
       2424  977 00013030 CPLUnlockFile
       2425  978 0001BB20 CPLVASPrintf
       2426  979 00006310 CPLVerifyConfiguration
       2427  97A 000125A0 CPLWriteFileInZip
       2428  97B 0001B7C0 CSLAddNameValue
       2429  97C 0001B580 CSLAddString
       2430  97D 0001BA80 CSLAppendPrintf
       2431  97E 00019AF0 CSLCount
       2432  97F 00019B70 CSLDestroy
       2433  980 00019BC0 CSLDuplicate
       2434  981 0001B660 CSLFetchBoolean
       2435  982 0001A740 CSLFetchNameValue
       2436  983 0001B6E0 CSLFetchNameValueDef
       2437  984 0001B710 CSLFetchNameValueMultiple
       2438  985 0001A7F0 CSLFindName
       2439  986 0001A1D0 CSLFindString
       2440  987 00019B20 CSLGetField
       2441  988 0001A050 CSLInsertString
       2442  989 00019F20 CSLInsertStrings
       2443  98A 00019DB0 CSLLoad
       2444  98B 00019C60 CSLLoad2
       2445  98C 0001B9D0 CSLMerge
       2446  98D 0001A260 CSLPartialFindString
       2447  98E 00019EB0 CSLPrint
       2448  98F 0001A080 CSLRemoveStrings
       2449  990 00019DD0 CSLSave
       2450  991 0001B880 CSLSetNameValue
       2451  992 0001A990 CSLSetNameValueSeparator
       2452  993 0001A6D0 CSLTestBoolean
       2453  994 0001B610 CSLTokenizeString
       2454  995 0001A2F0 CSLTokenizeString2
       2455  996 0001B630 CSLTokenizeStringComplex
       2456  997 00008420 CSVDeaccess
       2457  998 00008620 CSVDetectSeperator
       2458  999 00008D80 CSVFilename
       2459  99A 00009520 CSVGetField
       2460  99B 00008F20 CSVGetFieldId
       2461  99C 00009430 CSVGetFileFieldId
       2462  99D 000092E0 CSVGetNextLine
       2463  99E 00008E00 CSVReadParseLine
       2464  99F 000086C0 CSVReadParseLine2
       2465  9A0 00009340 CSVScanFile
       2466  9A1 000094C0 CSVScanFileByName
       2467  9A2 00008E10 CSVScanLines
       2468  9A3 0030A2E0 DBFAddField
       2469  9A4 00308E40 DBFAddNativeFieldType
       2470  9A5 0030A330 DBFCloneEmpty
       2471  9A6 00308AB0 DBFClose
       2472  9A7 0030A4A0 DBFCreate
       2473  9A8 0030A2A0 DBFCreateEx
       2474  9A9 00308B70 DBFCreateLL
       2475  9AA 00309F60 DBFDeleteField
       2476  9AB 00309F40 DBFGetCodePage
       2477  9AC 00309480 DBFGetFieldCount
       2478  9AD 00309CA0 DBFGetFieldIndex
       2479  9AE 003094A0 DBFGetFieldInfo
       2480  9AF 00309BE0 DBFGetNativeFieldType
       2481  9B0 00309490 DBFGetRecordCount
       2482  9B1 003093A0 DBFIsAttributeNULL
       2483  9B2 00309E70 DBFIsRecordDeleted
       2484  9B3 00309EC0 DBFMarkRecordDeleted
       2485  9B4 0030A260 DBFOpen
       2486  9B5 003084D0 DBFOpenLL
       2487  9B6 00309350 DBFReadDoubleAttribute
       2488  9B7 00309320 DBFReadIntegerAttribute
       2489  9B8 00309390 DBFReadLogicalAttribute
       2490  9B9 00309380 DBFReadStringAttribute
       2491  9BA 00309BA0 DBFReadTuple
       2492  9BB 003083C0 DBFUpdateHeader
       2493  9BC 003098F0 DBFWriteAttributeDirectly
       2494  9BD 00309A30 DBFWriteDoubleAttribute
       2495  9BE 00309A50 DBFWriteIntegerAttribute
       2496  9BF 00309AA0 DBFWriteLogicalAttribute
       2497  9C0 00309A90 DBFWriteNULLAttribute
       2498  9C1 00309A80 DBFWriteStringAttribute
       2499  9C2 00309AC0 DBFWriteTuple
       2500  9C3 003C2FD0 DGNAddMSLink
       2501  9C4 003C1BE0 DGNAddRawAttrLink
       2502  9C5 003C1D80 DGNAddShapeFillInfo
       2503  9C6 003BFEB0 DGNCloneElement
       2504  9C7 003BDC60 DGNClose
       2505  9C8 003C1DD0 DGNCreate
       2506  9C9 003C0770 DGNCreateArcElem
       2507  9CA 003C2150 DGNCreateArcElem2D
       2508  9CB 003C2960 DGNCreateCellHeaderElem
       2509  9CC 003C2CB0 DGNCreateCellHeaderFromGroup
       2510  9CD 003C1A00 DGNCreateColorTableElem
       2511  9CE 003C21C0 DGNCreateComplexHeaderElem
       2512  9CF 003C22E0 DGNCreateComplexHeaderFromGroup
       2513  9D0 003C0F80 DGNCreateConeElem
       2514  9D1 003C0400 DGNCreateMultiPointElem
       2515  9D2 003C2560 DGNCreateSolidHeaderElem
       2516  9D3 003C26C0 DGNCreateSolidHeaderFromGroup
       2517  9D4 003C1340 DGNCreateTextElem
       2518  9D5 0041C980 DGNDumpElement
       2519  9D6 00417FC0 DGNElemTypeHasDispHdr
       2520  9D7 00418430 DGNFreeElement
       2521  9D8 0041C870 DGNGetAssocID
       2522  9D9 0041C330 DGNGetAttrLinkSize
       2523  9DA 003BDC90 DGNGetDimension
       2524  9DB 00418780 DGNGetElementExtents
       2525  9DC 0041BC80 DGNGetElementIndex
       2526  9DD 0041BCC0 DGNGetExtents
       2527  9DE 0041C380 DGNGetLinkage
       2528  9DF 0041C760 DGNGetShapeFillInfo
       2529  9E0 00419230 DGNGotoElement
       2530  9E1 0041BC10 DGNLoadTCB
       2531  9E2 0041BE00 DGNLookupColor
       2532  9E3 003BD9A0 DGNOpen
       2533  9E4 0041C580 DGNQuaternionToMatrix
       2534  9E5 0041B9E0 DGNReadElement
       2535  9E6 003BFB30 DGNResizeElement
       2536  9E7 00418510 DGNRewind
       2537  9E8 0041C510 DGNRotationToQuaternion
       2538  9E9 003BDB30 DGNSetOptions
       2539  9EA 003BDCA0 DGNSetSpatialFilter
       2540  9EB 0041DB10 DGNStrokeArc
       2541  9EC 0041DC70 DGNStrokeCurve
       2542  9ED 003BD950 DGNTestOpen
       2543  9EE 0041C0B0 DGNTypeToName
       2544  9EF 003C2120 DGNUpdateElemCore
       2545  9F0 003C0200 DGNUpdateElemCoreExtended
       2546  9F1 003BFD20 DGNWriteElement
       2547  9F2 00033620 GDALARGetNextUpdatedRegion
       2548  9F3 00033690 GDALARLockBuffer
       2549  9F4 000336F0 GDALARUnlockBuffer
       2550  9F5 00030DA0 GDALAddBand
       2551  9F6 002DB4B0 GDALAddDerivedBandPixelFunc
       2552  9F7 00115E60 GDALAllRegister
       2553  9F8 0007CFB0 GDALApplyGeoTransform
       2554  9F9 0007CA80 GDALApproxTransform
       2555  9FA 0007CA70 GDALApproxTransformerOwnsSubtransformer
       2556  9FB 002E6290 GDALAutoCreateWarpedVRT
       2557  9FC 00061600 GDALBandGetBestOverviewLevel
       2558  9FD 00032DE0 GDALBeginAsyncReader
       2559  9FE 000318A0 GDALBuildOverviews
       2560  9FF 00051C80 GDALCheckBandCount
       2561  A00 00051C40 GDALCheckDatasetDimensions
       2562  A01 00050A40 GDALCheckVersion
       2563  A02 0006DB70 GDALChecksumImage
       2564  A03 0008C770 GDALChunkAndWarpImage
       2565  A04 0008CBC0 GDALChunkAndWarpMulti
       2566  A05 0002FFE0 GDALCloneColorTable
       2567  A06 00080720 GDALCloneWarpOptions
       2568  A07 00032960 GDALClose
       2569  A08 0005CF80 GDALComputeBandStats
       2570  A09 00074DF0 GDALComputeMedianCutPCT
       2571  A0A 00075780 GDALComputeProximity
       2572  A0B 0004BB70 GDALComputeRasterMinMax
       2573  A0C 0004B920 GDALComputeRasterStatistics
       2574  A0D 0006D740 GDALContourGenerate
       2575  A0E 000614F0 GDALCopyBits
       2576  A0F 00036CA0 GDALCopyDatasetFiles
       2577  A10 000654B0 GDALCopyWords
       2578  A11 00036F30 GDALCreate
       2579  A12 00081280 GDALCreateAndReprojectImage
       2580  A13 0007E840 GDALCreateApproxTransformer
       2581  A14 00030430 GDALCreateColorRamp
       2582  A15 0002FF00 GDALCreateColorTable
       2583  A16 000377E0 GDALCreateCopy
       2584  A17 000326A0 GDALCreateDatasetMaskBand
       2585  A18 0008E190 GDALCreateGCPTransformer
       2586  A19 0007F6B0 GDALCreateGenImgProjTransformer
       2587  A1A 0007F060 GDALCreateGenImgProjTransformer2
       2588  A1B 0007E1D0 GDALCreateGenImgProjTransformer3
       2589  A1C 00070C80 GDALCreateGeoLocTransformer
       2590  A1D 0004C260 GDALCreateMaskBand
       2591  A1E 00090680 GDALCreateRPCTransformer
       2592  A1F 000568F0 GDALCreateRasterAttributeTable
       2593  A20 0007DE50 GDALCreateReprojectionTransformer
       2594  A21 0004FF60 GDALCreateScaledProgress
       2595  A22 000914C0 GDALCreateTPSTransformer
       2596  A23 0008A3D0 GDALCreateWarpOperation
       2597  A24 00080630 GDALCreateWarpOptions
       2598  A25 002E6080 GDALCreateWarpedVRT
       2599  A26 0004F990 GDALDataTypeIsComplex
       2600  A27 00051D10 GDALDataTypeUnion
       2601  A28 000324C0 GDALDatasetAdviseRead
       2602  A29 00062040 GDALDatasetCopyWholeRaster
       2603  A2A 000320E0 GDALDatasetRasterIO
       2604  A2B 00050AA0 GDALDecToDMS
       2605  A2C 00050AC0 GDALDecToPackedDMS
       2606  A2D 000506E0 GDALDeinitGCPs
       2607  A2E 00036BB0 GDALDeleteDataset
       2608  A2F 00031440 GDALDereferenceDataset
       2609  A30 000384A0 GDALDeregisterDriver
       2610  A31 0007E980 GDALDeserializeTransformer
       2611  A32 00080920 GDALDeserializeWarpOptions
       2612  A33 0007E120 GDALDestroyApproxTransformer
       2613  A34 00030070 GDALDestroyColorTable
       2614  A35 00035BA0 GDALDestroyDriver
       2615  A36 000380F0 GDALDestroyDriverManager
       2616  A37 0008CC10 GDALDestroyGCPTransformer
       2617  A38 0007D4E0 GDALDestroyGenImgProjTransformer
       2618  A39 00070770 GDALDestroyGeoLocTransformer
       2619  A3A 0008E9A0 GDALDestroyRPCTransformer
       2620  A3B 00056A80 GDALDestroyRasterAttributeTable
       2621  A3C 0007C8E0 GDALDestroyReprojectionTransformer
       2622  A3D 0004FFF0 GDALDestroyScaledProgress
       2623  A3E 00091070 GDALDestroyTPSTransformer
       2624  A3F 0007D2D0 GDALDestroyTransformer
       2625  A40 0008A470 GDALDestroyWarpOperation
       2626  A41 00080660 GDALDestroyWarpOptions
       2627  A42 0006F010 GDALDitherRGB2PCT
       2628  A43 0004FF20 GDALDummyProgress
       2629  A44 00032C50 GDALDumpOpenDatasets
       2630  A45 00050760 GDALDuplicateGCPs
       2631  A46 00032EF0 GDALEndAsyncReader
       2632  A47 00051670 GDALExtractRPCInfo
       2633  A48 00094D00 GDALFillNodata
       2634  A49 0004A3D0 GDALFillRaster
       2635  A4A 000540D0 GDALFindAssociatedAuxFile
       2636  A4B 00030D10 GDALFlushCache
       2637  A4C 0004F700 GDALFlushCacheBlock
       2638  A4D 0004A0F0 GDALFlushRasterCache
       2639  A4E 0008D710 GDALGCPTransform
       2640  A4F 00050AD0 GDALGCPsToGeoTransform
       2641  A50 0007D5A0 GDALGenImgProjTransform
       2642  A51 000535D0 GDALGeneralCmdLineProcessor
       2643  A52 00070800 GDALGeoLocTransform
       2644  A53 00032320 GDALGetAccess
       2645  A54 00051F20 GDALGetAsyncStatusTypeByName
       2646  A55 0004FC00 GDALGetAsyncStatusTypeName
       2647  A56 0004B1C0 GDALGetBandDataset
       2648  A57 0004B160 GDALGetBandNumber
       2649  A58 00049E00 GDALGetBlockSize
       2650  A59 0004F500 GDALGetCacheMax
       2651  A5A 0004F100 GDALGetCacheMax64
       2652  A5B 0004F1A0 GDALGetCacheUsed
       2653  A5C 0004F200 GDALGetCacheUsed64
       2654  A5D 0002FD30 GDALGetColorEntry
       2655  A5E 0002FDE0 GDALGetColorEntryAsRGB
       2656  A5F 0002FE90 GDALGetColorEntryCount
       2657  A60 0004FD80 GDALGetColorInterpretationByName
       2658  A61 0004FC80 GDALGetColorInterpretationName
       2659  A62 0004FA70 GDALGetDataTypeByName
       2660  A63 0004F9B0 GDALGetDataTypeName
       2661  A64 0004F910 GDALGetDataTypeSize
       2662  A65 00031380 GDALGetDatasetDriver
       2663  A66 0004B480 GDALGetDefaultHistogram
       2664  A67 0004BC70 GDALGetDefaultRAT
       2665  A68 0003BC60 GDALGetDescription
       2666  A69 000382E0 GDALGetDriver
       2667  A6A 00038500 GDALGetDriverByName
       2668  A6B 000382C0 GDALGetDriverCount
       2669  A6C 00036330 GDALGetDriverCreationOptionList
       2670  A6D 000362D0 GDALGetDriverHelpTopic
       2671  A6E 00036270 GDALGetDriverLongName
       2672  A6F 00036220 GDALGetDriverShortName
       2673  A70 00032560 GDALGetFileList
       2674  A71 000315F0 GDALGetGCPCount
       2675  A72 00031650 GDALGetGCPProjection
       2676  A73 000316B0 GDALGetGCPs
       2677  A74 00031230 GDALGetGeoTransform
       2678  A75 00031320 GDALGetInternalHandle
       2679  A76 0004C0D0 GDALGetMaskBand
       2680  A77 0004C160 GDALGetMaskFlags
       2681  A78 0003BD10 GDALGetMetadata
       2682  A79 0003BDE0 GDALGetMetadataItem
       2683  A7A 00032290 GDALGetOpenDatasets
       2684  A7B 0004ACD0 GDALGetOverview
       2685  A7C 0004AC20 GDALGetOverviewCount
       2686  A7D 0002FCB0 GDALGetPaletteInterpretation
       2687  A7E 0004FC40 GDALGetPaletteInterpretationName
       2688  A7F 00031120 GDALGetProjectionRef
       2689  A80 000500F0 GDALGetRandomRasterSample
       2690  A81 0004A430 GDALGetRasterAccess
       2691  A82 00031020 GDALGetRasterBand
       2692  A83 0004B0A0 GDALGetRasterBandXSize
       2693  A84 0004B100 GDALGetRasterBandYSize
       2694  A85 0004A490 GDALGetRasterCategoryNames
       2695  A86 0004A9A0 GDALGetRasterColorInterpretation
       2696  A87 0004AA90 GDALGetRasterColorTable
       2697  A88 000310C0 GDALGetRasterCount
       2698  A89 00049D30 GDALGetRasterDataType
       2699  A8A 0004B210 GDALGetRasterHistogram
       2700  A8B 0004A7C0 GDALGetRasterMaximum
       2701  A8C 0004A940 GDALGetRasterMinimum
       2702  A8D 0004A590 GDALGetRasterNoDataValue
       2703  A8E 0004ADC0 GDALGetRasterOffset
       2704  A8F 0004AD20 GDALGetRasterSampleOverview
       2705  A90 0004AEC0 GDALGetRasterScale
       2706  A91 0004B8B0 GDALGetRasterStatistics
       2707  A92 0004AFB0 GDALGetRasterUnitType
       2708  A93 00030F20 GDALGetRasterXSize
       2709  A94 00030F80 GDALGetRasterYSize
       2710  A95 00073CB0 GDALGridCreate
       2711  A96 0004AB80 GDALHasArbitraryOverviews
       2712  A97 00036A10 GDALIdentifyDriver
       2713  A98 00050630 GDALInitGCPs
       2714  A99 002E53C0 GDALInitializeWarpedVRT
       2715  A9A 0007D000 GDALInvGeoTransform
       2716  A9B 00059E60 GDALLoadIMDFile
       2717  A9C 00051FF0 GDALLoadOziMapFile
       2718  A9D 00057F60 GDALLoadRPBFile
       2719  A9E 00058790 GDALLoadRPCFile
       2720  A9F 000528E0 GDALLoadTabFile
       2721  AA0 00053070 GDALLoadWorldFile
       2722  AA1 000331C0 GDALOpen
       2723  AA2 000331D0 GDALOpenShared
       2724  AA3 00033C80 GDALOvLevelAdjust
       2725  AA4 0005D470 GDALOverviewMagnitudeCorrection
       2726  AA5 00050AB0 GDALPackedDMSToDec
       2727  AA6 00039020 GDALParseGMLCoverage
       2728  AA7 00093920 GDALPolygonize
       2729  AA8 00049530 GDALProxyPoolDatasetAddSrcBandDescription
       2730  AA9 000488B0 GDALProxyPoolDatasetCreate
       2731  AAA 00048930 GDALProxyPoolDatasetDelete
       2732  AAB 000570F0 GDALRATClone
       2733  AAC 00056C10 GDALRATCreateColumn
       2734  AAD 00056020 GDALRATDumpReadable
       2735  AAE 00054EF0 GDALRATGetColOfUsage
       2736  AAF 00054C80 GDALRATGetColumnCount
       2737  AB0 00054BF0 GDALRATGetLinearBinning
       2738  AB1 00055170 GDALRATGetNameOfCol
       2739  AB2 00054AF0 GDALRATGetRowCount
       2740  AB3 00055860 GDALRATGetRowOfValue
       2741  AB4 00054E10 GDALRATGetTypeOfCol
       2742  AB5 00054D40 GDALRATGetUsageOfCol
       2743  AB6 00055570 GDALRATGetValueAsDouble
       2744  AB7 00055440 GDALRATGetValueAsInt
       2745  AB8 00056070 GDALRATGetValueAsString
       2746  AB9 00056E20 GDALRATInitializeFromColorTable
       2747  ABA 00054B60 GDALRATSetLinearBinning
       2748  ABB 00056280 GDALRATSetRowCount
       2749  ABC 00056840 GDALRATSetValueAsDouble
       2750  ABD 00056640 GDALRATSetValueAsInt
       2751  ABE 00056450 GDALRATSetValueAsString
       2752  ABF 00055B70 GDALRATTranslateToColorTable
       2753  AC0 0008F090 GDALRPCTransform
       2754  AC1 0004B5F0 GDALRasterAdviseRead
       2755  AC2 00062890 GDALRasterBandCopyWholeRaster
       2756  AC3 00049C30 GDALRasterIO
       2757  AC4 00078690 GDALRasterizeGeometries
       2758  AC5 00078B50 GDALRasterizeLayers
       2759  AC6 00079470 GDALRasterizeLayersBuf
       2760  AC7 0004C6A0 GDALReadBlock
       2761  AC8 00052810 GDALReadOziMapFile
       2762  AC9 00052DD0 GDALReadTabFile
       2763  ACA 00053310 GDALReadWorldFile
       2764  ACB 000313E0 GDALReferenceDataset
       2765  ACC 0005FB30 GDALRegenerateOverviews
       2766  ACD 00038440 GDALRegisterDriver
       2767  ACE 00099640 GDALRegister_AAIGrid
       2768  ACF 000A26C0 GDALRegister_ADRG
       2769  AD0 000A57B0 GDALRegister_AIGrid
       2770  AD1 000A6E50 GDALRegister_AirSAR
       2771  AD2 000A8550 GDALRegister_BIGGIF
       2772  AD3 000AC760 GDALRegister_BLX
       2773  AD4 000AE6A0 GDALRegister_BMP
       2774  AD5 000AFE70 GDALRegister_BSB
       2775  AD6 000B2B90 GDALRegister_BT
       2776  AD7 000B4F90 GDALRegister_CEOS
       2777  AD8 000BD030 GDALRegister_COASP
       2778  AD9 000BEFF0 GDALRegister_COSAR
       2779  ADA 000D9040 GDALRegister_CPG
       2780  ADB 000EB9F0 GDALRegister_DIMAP
       2781  ADC 000EC140 GDALRegister_DIPEx
       2782  ADD 000EC970 GDALRegister_DOQ1
       2783  ADE 000ED520 GDALRegister_DOQ2
       2784  ADF 000EF130 GDALRegister_DTED
       2785  AE0 000F8920 GDALRegister_EHdr
       2786  AE1 000F9BC0 GDALRegister_EIR
       2787  AE2 000FACF0 GDALRegister_ELAS
       2788  AE3 00103BB0 GDALRegister_ENVI
       2789  AE4 0010A9E0 GDALRegister_ERS
       2790  AE5 001054C0 GDALRegister_Envisat
       2791  AE6 0010EB70 GDALRegister_FAST
       2792  AE7 00111EA0 GDALRegister_FIT
       2793  AE8 00112490 GDALRegister_FujiBAS
       2794  AE9 00132910 GDALRegister_GFF
       2795  AEA 001343E0 GDALRegister_GIF
       2796  AEB 00139430 GDALRegister_GRIB
       2797  AEC 0013BB50 GDALRegister_GS7BG
       2798  AED 0013E970 GDALRegister_GSAG
       2799  AEE 00141CF0 GDALRegister_GSBG
       2800  AEF 001422C0 GDALRegister_GSC
       2801  AF0 00142F50 GDALRegister_GTX
       2802  AF1 00129080 GDALRegister_GTiff
       2803  AF2 0014B930 GDALRegister_GXF
       2804  AF3 00118950 GDALRegister_GenBin
       2805  AF4 001524B0 GDALRegister_HF2
       2806  AF5 0015E270 GDALRegister_HFA
       2807  AF6 0016DF70 GDALRegister_HKV
       2808  AF7 0016E940 GDALRegister_HTTP
       2809  AF8 00170880 GDALRegister_IDA
       2810  AF9 00175BB0 GDALRegister_IDRISI
       2811  AFA 00189280 GDALRegister_ILWIS
       2812  AFB 001927A0 GDALRegister_INGR
       2813  AFC 00196150 GDALRegister_ISIS2
       2814  AFD 001981B0 GDALRegister_ISIS3
       2815  AFE 001B3F80 GDALRegister_JDEM
       2816  AFF 0021FEA0 GDALRegister_JP2OpenJPEG
       2817  B00 001CEA30 GDALRegister_JPEG
       2818  B01 001DB6B0 GDALRegister_KMLSUPEROVERLAY
       2819  B02 001DDE90 GDALRegister_L1B
       2820  B03 001DEF70 GDALRegister_LAN
       2821  B04 001E11A0 GDALRegister_LCP
       2822  B05 001E4830 GDALRegister_LOSLAS
       2823  B06 001E34E0 GDALRegister_Leveller
       2824  B07 001E6FC0 GDALRegister_MEM
       2825  B08 001F52B0 GDALRegister_MFF
       2826  B09 001FB580 GDALRegister_MSGN
       2827  B0A 001FFE30 GDALRegister_NDF
       2828  B0B 0020BFA0 GDALRegister_NITF
       2829  B0C 0021D6A0 GDALRegister_NTv2
       2830  B0D 001353C0 GDALRegister_NWT_GRC
       2831  B0E 00135DC0 GDALRegister_NWT_GRD
       2832  B0F 00221C40 GDALRegister_OZI
       2833  B10 001993F0 GDALRegister_PALSARJaxa
       2834  B11 002252D0 GDALRegister_PAux
       2835  B12 0022BE40 GDALRegister_PCIDSK
       2836  B13 0022EF50 GDALRegister_PCRaster
       2837  B14 00236710 GDALRegister_PDF
       2838  B15 0023A660 GDALRegister_PDS
       2839  B16 0023DCA0 GDALRegister_PNG
       2840  B17 00257AF0 GDALRegister_PNM
       2841  B18 00259C20 GDALRegister_PostGISRaster
       2842  B19 00268190 GDALRegister_R
       2843  B1A 0026A520 GDALRegister_RIK
       2844  B1B 0026D8C0 GDALRegister_RMF
       2845  B1C 00270AB0 GDALRegister_RPFTOC
       2846  B1D 00275AD0 GDALRegister_RS2
       2847  B1E 00262CF0 GDALRegister_Rasterlite
       2848  B1F 00279F20 GDALRegister_SAGA
       2849  B20 0027D9F0 GDALRegister_SAR_CEOS
       2850  B21 0027EE20 GDALRegister_SDTS
       2851  B22 00284C50 GDALRegister_SGI
       2852  B23 00288C60 GDALRegister_SRP
       2853  B24 002899D0 GDALRegister_SRTMHGT
       2854  B25 002D0990 GDALRegister_TIL
       2855  B26 002D4110 GDALRegister_TSX
       2856  B27 00294A50 GDALRegister_Terragen
       2857  B28 002D54D0 GDALRegister_USGSDEM
       2858  B29 002DC520 GDALRegister_VRT
       2859  B2A 002EC120 GDALRegister_WCS
       2860  B2B 002EF5D0 GDALRegister_WMS
       2861  B2C 002F0530 GDALRegister_XPM
       2862  B2D 002F2390 GDALRegister_XYZ
       2863  B2E 00036C10 GDALRenameDataset
       2864  B2F 00080F30 GDALReprojectImage
       2865  B30 0007C960 GDALReprojectionTransform
       2866  B31 0004FF30 GDALScaledProgress
       2867  B32 0007D0E0 GDALSerializeTransformer
       2868  B33 000814C0 GDALSerializeWarpOptions
       2869  B34 0004F8B0 GDALSetCacheMax
       2870  B35 0004F850 GDALSetCacheMax64
       2871  B36 00030180 GDALSetColorEntry
       2872  B37 0004BC00 GDALSetDefaultHistogram
       2873  B38 0004BD00 GDALSetDefaultRAT
       2874  B39 0003BCB0 GDALSetDescription
       2875  B3A 00031740 GDALSetGCPs
       2876  B3B 0007D450 GDALSetGenImgProjTransformerDstGeoTransform
       2877  B3C 000312C0 GDALSetGeoTransform
       2878  B3D 0003BD80 GDALSetMetadata
       2879  B3E 0003BE50 GDALSetMetadataItem
       2880  B3F 000311B0 GDALSetProjection
       2881  B40 0004A520 GDALSetRasterCategoryNames
       2882  B41 0004AA30 GDALSetRasterColorInterpretation
       2883  B42 0004AB20 GDALSetRasterColorTable
       2884  B43 0004A620 GDALSetRasterNoDataValue
       2885  B44 0004AE50 GDALSetRasterOffset
       2886  B45 0004AF50 GDALSetRasterScale
       2887  B46 0004BB10 GDALSetRasterStatistics
       2888  B47 0004B040 GDALSetRasterUnitType
       2889  B48 00079F20 GDALSieveFilter
       2890  B49 0007AE10 GDALSimpleImageWarp
       2891  B4A 0007D3C0 GDALSuggestedWarpOutput
       2892  B4B 0007BBB0 GDALSuggestedWarpOutput2
       2893  B4C 000610F0 GDALSwapWords
       2894  B4D 00090F70 GDALTPSTransform
       2895  B4E 00050000 GDALTermProgress
       2896  B4F 0007D320 GDALUseTransformer
       2897  B50 00036390 GDALValidateCreationOptions
       2898  B51 00050830 GDALVersionInfo
       2899  B52 0006EA60 GDALWarpCutlineMasker
       2900  B53 00080240 GDALWarpDstAlphaMasker
       2901  B54 0007F7E0 GDALWarpNoDataMasker
       2902  B55 0008C500 GDALWarpRegion
       2903  B56 0008BDC0 GDALWarpRegionToBuffer
       2904  B57 0007FEE0 GDALWarpSrcAlphaMasker
       2905  B58 000800C0 GDALWarpSrcMaskMasker
       2906  B59 0004C7D0 GDALWriteBlock
       2907  B5A 00059310 GDALWriteIMDFile
       2908  B5B 00057BA0 GDALWriteRPBFile
       2909  B5C 00052EA0 GDALWriteWorldFile
       2910  B5D 0006BAE0 GDAL_CG_Create
       2911  B5E 0006D030 GDAL_CG_Destroy
       2912  B5F 0006DB20 GDAL_CG_FeedLine
       2913  B60 0012CC80 GTIFAngleStringToDD
       2914  B61 0012F2F0 GTIFAngleToDD
       2915  B62 0012F2E0 GTIFDeaccessCSV
       2916  B63 0012F090 GTIFDecToDMS
       2917  B64 0012BD60 GTIFDirectoryInfo
       2918  B65 00144C60 GTIFFBuildOverviews
       2919  B66 0012BCD0 GTIFFree
       2920  B67 0012F2C0 GTIFFreeMemory
       2921  B68 0012D250 GTIFGetDatumInfo
       2922  B69 0012F650 GTIFGetDefn
       2923  B6A 0012F390 GTIFGetEllipsoidInfo
       2924  B6B 0012CE90 GTIFGetGCSInfo
       2925  B6C 00146030 GTIFGetOGISDefn
       2926  B6D 0012C980 GTIFGetPCSInfo
       2927  B6E 0012D100 GTIFGetPMInfo
       2928  B6F 0012AD80 GTIFGetProj4Defn
       2929  B70 0012DC80 GTIFGetProjTRFInfo
       2930  B71 0012D610 GTIFGetUOMAngleInfo
       2931  B72 0012D410 GTIFGetUOMLengthInfo
       2932  B73 00130D70 GTIFImport
       2933  B74 0012C1F0 GTIFKeyCode
       2934  B75 0012BDD0 GTIFKeyGet
       2935  B76 0012BD90 GTIFKeyInfo
       2936  B77 0012BEF0 GTIFKeyName
       2937  B78 001310E0 GTIFKeySet
       2938  B79 0012B850 GTIFMapSysToPCS
       2939  B7A 0012B9C0 GTIFMapSysToProj
       2940  B7B 0014AC80 GTIFMemBufFromWkt
       2941  B7C 0012C920 GTIFNew
       2942  B7D 0012C950 GTIFNewSimpleTags
       2943  B7E 0012C6E0 GTIFNewWithMethods
       2944  B7F 0012BA30 GTIFPCSToMapSys
       2945  B80 00130EE0 GTIFPrint
       2946  B81 0012FBF0 GTIFPrintDefn
       2947  B82 0012B840 GTIFProj4FromLatLong
       2948  B83 0012B830 GTIFProj4ToLatLong
       2949  B84 0012BC30 GTIFProjToMapSys
       2950  B85 001478E0 GTIFSetFromOGISDefn
       2951  B86 0012A200 GTIFSetFromProj4
       2952  B87 00131900 GTIFSetSimpleTagsMethods
       2953  B88 0012C350 GTIFTagCode
       2954  B89 0012BFB0 GTIFTagName
       2955  B8A 0012C2A0 GTIFTypeCode
       2956  B8B 0012BF50 GTIFTypeName
       2957  B8C 0012C400 GTIFValueCode
       2958  B8D 0012C010 GTIFValueName
       2959  B8E 0014A8B0 GTIFWktFromMemBuf
       2960  B8F 00131D80 GTIFWriteKeys
       2961  B90 00038120 GetGDALDriverManager
       2962  B91 0016A370 HFAAuxBuildOverviews
       2963  B92 00166B00 HFAClose
       2964  B93 00168520 HFACreate
       2965  B94 00167EE0 HFACreateLL
       2966  B95 001644E0 HFACreateLayer
       2967  B96 00164AC0 HFACreateOverview
       2968  B97 00164490 HFADumpDictionary
       2969  B98 00164470 HFADumpTree
       2970  B99 00165CA0 HFAEvaluateXFormStack
       2971  B9A 00166990 HFAFlush
       2972  B9B 00162820 HFAGetBandInfo
       2973  B9C 001628D0 HFAGetBandNoData
       2974  B9D 00164270 HFAGetDataRange
       2975  B9E 00162C40 HFAGetDataTypeBits
       2976  B9F 00162CD0 HFAGetDataTypeName
       2977  BA0 00163E20 HFAGetDatum
       2978  BA1 00163070 HFAGetGeoTransform
       2979  BA2 00167BF0 HFAGetIGEFilename
       2980  BA3 00162DA0 HFAGetMapInfo
       2981  BA4 00164AF0 HFAGetMetadata
       2982  BA5 00162940 HFAGetOverviewCount
       2983  BA6 00162990 HFAGetOverviewInfo
       2984  BA7 001665B0 HFAGetOverviewRasterBlock
       2985  BA8 00162AD0 HFAGetOverviewRasterBlockEx
       2986  BA9 001641A0 HFAGetPCT
       2987  BAA 00163550 HFAGetPEString
       2988  BAB 001638A0 HFAGetProParameters
       2989  BAC 00166560 HFAGetRasterBlock
       2990  BAD 00162A80 HFAGetRasterBlockEx
       2991  BAE 001627F0 HFAGetRasterInfo
       2992  BAF 00166620 HFAOpen
       2993  BB0 00165F90 HFAReadCameraModel
       2994  BB1 00166FE0 HFAReadXFormStack
       2995  BB2 00162910 HFASetBandNoData
       2996  BB3 00163F80 HFASetDatum
       2997  BB4 00167860 HFASetGeoTransform
       2998  BB5 00163390 HFASetMapInfo
       2999  BB6 001650A0 HFASetMetadata
       3000  BB7 00162B80 HFASetOverviewRasterBlock
       3001  BB8 00164210 HFASetPCT
       3002  BB9 00163650 HFASetPEString
       3003  BBA 00163AD0 HFASetProParameters
       3004  BBB 00162B40 HFASetRasterBlock
       3005  BBC 001673F0 HFAWriteXFormStack
       3006  BBD 001E6220 MEMCreateRasterBand
       3007  BBE 0020D2B0 NITFClose
       3008  BBF 0020DFB0 NITFCollectAttachments
       3009  BC0 0020E300 NITFCreate
       3010  BC1 0020CAC0 NITFDESAccess
       3011  BC2 0020C4F0 NITFDESDeaccess
       3012  BC3 0020C7F0 NITFDESExtractShapefile
       3013  BC4 0020C7E0 NITFDESFreeTREData
       3014  BC5 0020C540 NITFDESGetTRE
       3015  BC6 0020DA70 NITFFindTRE
       3016  BC7 0020DBF0 NITFFindTREByIndex
       3017  BC8 0020DEB0 NITFGetSeriesInfo
       3018  BC9 00215BE0 NITFIHFieldOffset
       3019  BCA 00217710 NITFImageAccess
       3020  BCB 00212270 NITFImageDeaccess
       3021  BCC 00211350 NITFOpen
       3022  BCD 002156B0 NITFRPCGeoToImage
       3023  BCE 00213AA0 NITFReadBLOCKA
       3024  BCF 00213450 NITFReadICHIPB
       3025  BD0 00216420 NITFReadImageBlock
       3026  BD1 00216DB0 NITFReadImageLine
       3027  BD2 00213090 NITFReadRPC00B
       3028  BD3 00215430 NITFReadSTDIDC
       3029  BD4 00213870 NITFReadUSE00A
       3030  BD5 0020E1F0 NITFReconcileAttachments
       3031  BD6 002125B0 NITFWriteIGEOLO
       3032  BD7 00216C20 NITFWriteImageBlock
       3033  BD8 00217060 NITFWriteImageLine
       3034  BD9 00212DC0 NITFWriteLUT
       3035  BDA 0020DE60 NITF_WGS84_Geocentric_Latitude_To_Geodetic_Latitude
       3036  BDB 00441110 OCTDestroyCoordinateTransformation
       3037  BDC 00442920 OCTNewCoordinateTransformation
       3038  BDD 00441920 OCTTransform
       3039  BDE 00442780 OCTTransformEx
       3040  BDF 00487580 OGRBuildPolygonFromEdges
       3041  BE0 0047E9C0 OGRCalloc
       3042  BE1 002F3AC0 OGRCleanupAll
       3043  BE2 0006B9A0 OGRContourWriter
       3044  BE3 002F3500 OGRDeregisterDriver
       3045  BE4 0047E9E0 OGRFree
       3046  BE5 0044F9E0 OGRGeometryTypeToName
       3047  BE6 002F3610 OGRGetDriver
       3048  BE7 002F3740 OGRGetDriverByName
       3049  BE8 002F3570 OGRGetDriverCount
       3050  BE9 0044FCB0 OGRGetGenerate_DB2_V72_BYTE_ORDER
       3051  BEA 002F3210 OGRGetOpenDS
       3052  BEB 002F3170 OGRGetOpenDSCount
       3053  BEC 0047E9B0 OGRMalloc
       3054  BED 0044FBE0 OGRMergeGeometryTypes
       3055  BEE 002F2AC0 OGROpen
       3056  BEF 002F2E10 OGROpenShared
       3057  BF0 0047E9F0 OGRParseDate
       3058  BF1 0047E9D0 OGRRealloc
       3059  BF2 002F26C0 OGRRegisterAll
       3060  BF3 002F33E0 OGRRegisterDriver
       3061  BF4 002F3110 OGRReleaseDataSource
       3062  BF5 0044FCA0 OGRSetGenerate_DB2_V72_BYTE_ORDER
       3063  BF6 002F5E30 OGR_DS_CopyLayer
       3064  BF7 002F5A20 OGR_DS_CreateLayer
       3065  BF8 002F5ED0 OGR_DS_DeleteLayer
       3066  BF9 002F5850 OGR_DS_Dereference
       3067  BFA 002F5760 OGR_DS_Destroy
       3068  BFB 002F6640 OGR_DS_ExecuteSQL
       3069  BFC 002F6990 OGR_DS_GetDriver
       3070  BFD 002F67D0 OGR_DS_GetLayer
       3071  BFE 002F6080 OGR_DS_GetLayerByName
       3072  BFF 002F6780 OGR_DS_GetLayerCount
       3073  C00 002F6820 OGR_DS_GetName
       3074  C01 002F58B0 OGR_DS_GetRefCount
       3075  C02 002F6AC0 OGR_DS_GetStyleTable
       3076  C03 002F59A0 OGR_DS_GetSummaryRefCount
       3077  C04 002F57F0 OGR_DS_Reference
       3078  C05 002F66C0 OGR_DS_ReleaseResultSet
       3079  C06 002F6B60 OGR_DS_SetStyleTable
       3080  C07 002F6B10 OGR_DS_SetStyleTableDirectly
       3081  C08 002F6930 OGR_DS_SyncToDisk
       3082  C09 002F6710 OGR_DS_TestCapability
       3083  C0A 002F7540 OGR_Dr_CopyDataSource
       3084  C0B 002F7200 OGR_Dr_CreateDataSource
       3085  C0C 002F72C0 OGR_Dr_DeleteDataSource
       3086  C0D 002F7310 OGR_Dr_GetName
       3087  C0E 002F7360 OGR_Dr_Open
       3088  C0F 002F73E0 OGR_Dr_TestCapability
       3089  C10 0046AB10 OGR_FD_AddFieldDefn
       3090  C11 0046A8C0 OGR_FD_Create
       3091  C12 0046AB70 OGR_FD_Dereference
       3092  C13 0046A930 OGR_FD_Destroy
       3093  C14 0046A9E0 OGR_FD_GetFieldCount
       3094  C15 0046AA40 OGR_FD_GetFieldDefn
       3095  C16 0046AC20 OGR_FD_GetFieldIndex
       3096  C17 0046AB20 OGR_FD_GetGeomType
       3097  C18 0046A9D0 OGR_FD_GetName
       3098  C19 0046AB90 OGR_FD_GetReferenceCount
       3099  C1A 0046AC30 OGR_FD_IsGeometryIgnored
       3100  C1B 0046AC50 OGR_FD_IsStyleIgnored
       3101  C1C 0046AB50 OGR_FD_Reference
       3102  C1D 0046A990 OGR_FD_Release
       3103  C1E 0046AB40 OGR_FD_SetGeomType
       3104  C1F 0046AC40 OGR_FD_SetGeometryIgnored
       3105  C20 0046AC60 OGR_FD_SetStyleIgnored
       3106  C21 00466930 OGR_F_Clone
       3107  C22 004637D0 OGR_F_Create
       3108  C23 00463830 OGR_F_Destroy
       3109  C24 004659B0 OGR_F_DumpReadable
       3110  C25 00466200 OGR_F_Equal
       3111  C26 004638B0 OGR_F_GetDefnRef
       3112  C27 00465A00 OGR_F_GetFID
       3113  C28 00464EA0 OGR_F_GetFieldAsBinary
       3114  C29 00465050 OGR_F_GetFieldAsDateTime
       3115  C2A 004641A0 OGR_F_GetFieldAsDouble
       3116  C2B 00464CF0 OGR_F_GetFieldAsDoubleList
       3117  C2C 00464030 OGR_F_GetFieldAsInteger
       3118  C2D 00464C00 OGR_F_GetFieldAsIntegerList
       3119  C2E 00464B10 OGR_F_GetFieldAsString
       3120  C2F 00464DC0 OGR_F_GetFieldAsStringList
       3121  C30 00463B90 OGR_F_GetFieldCount
       3122  C31 00463BE0 OGR_F_GetFieldDefnRef
       3123  C32 00463C30 OGR_F_GetFieldIndex
       3124  C33 00463B40 OGR_F_GetGeometryRef
       3125  C34 00463ED0 OGR_F_GetRawFieldRef
       3126  C35 004662C0 OGR_F_GetStyleString
       3127  C36 00466580 OGR_F_GetStyleTable
       3128  C37 00463D50 OGR_F_IsFieldSet
       3129  C38 00465A60 OGR_F_SetFID
       3130  C39 00466D30 OGR_F_SetFieldBinary
       3131  C3A 00465440 OGR_F_SetFieldDateTime
       3132  C3B 00465330 OGR_F_SetFieldDouble
       3133  C3C 00466B00 OGR_F_SetFieldDoubleList
       3134  C3D 004651D0 OGR_F_SetFieldInteger
       3135  C3E 004669F0 OGR_F_SetFieldIntegerList
       3136  C3F 004657A0 OGR_F_SetFieldRaw
       3137  C40 00467330 OGR_F_SetFieldString
       3138  C41 00466C10 OGR_F_SetFieldStringList
       3139  C42 00467730 OGR_F_SetFrom
       3140  C43 004675B0 OGR_F_SetFromWithMap
       3141  C44 00463A30 OGR_F_SetGeometry
       3142  C45 00463950 OGR_F_SetGeometryDirectly
       3143  C46 00466360 OGR_F_SetStyleString
       3144  C47 00466400 OGR_F_SetStyleStringDirectly
       3145  C48 00466620 OGR_F_SetStyleTable
       3146  C49 004665D0 OGR_F_SetStyleTableDirectly
       3147  C4A 00463AF0 OGR_F_StealGeometry
       3148  C4B 00463E80 OGR_F_UnsetField
       3149  C4C 00485420 OGR_Fld_Create
       3150  C4D 00485490 OGR_Fld_Destroy
       3151  C4E 004851F0 OGR_Fld_GetJustify
       3152  C4F 004850D0 OGR_Fld_GetNameRef
       3153  C50 00485240 OGR_Fld_GetPrecision
       3154  C51 004850E0 OGR_Fld_GetType
       3155  C52 00485210 OGR_Fld_GetWidth
       3156  C53 00485340 OGR_Fld_IsIgnored
       3157  C54 004852D0 OGR_Fld_Set
       3158  C55 00485350 OGR_Fld_SetIgnored
       3159  C56 00485200 OGR_Fld_SetJustify
       3160  C57 00485090 OGR_Fld_SetName
       3161  C58 00485250 OGR_Fld_SetPrecision
       3162  C59 004850F0 OGR_Fld_SetType
       3163  C5A 00485220 OGR_Fld_SetWidth
       3164  C5B 00440860 OGR_G_AddGeometry
       3165  C5C 00440970 OGR_G_AddGeometryDirectly
       3166  C5D 00440540 OGR_G_AddPoint
       3167  C5E 00440620 OGR_G_AddPoint_2D
       3168  C5F 00469D20 OGR_G_ApproximateArcAngles
       3169  C60 00440BE0 OGR_G_Area
       3170  C61 0044EC80 OGR_G_AssignSpatialReference
       3171  C62 00450020 OGR_G_Boundary
       3172  C63 00450150 OGR_G_Buffer
       3173  C64 00450D00 OGR_G_Centroid
       3174  C65 0044F540 OGR_G_Clone
       3175  C66 00450BB0 OGR_G_CloseRings
       3176  C67 00450A80 OGR_G_Contains
       3177  C68 0044FF50 OGR_G_ConvexHull
       3178  C69 00468AD0 OGR_G_CreateFromFgf
       3179  C6A 0045C720 OGR_G_CreateFromGML
       3180  C6B 0045C700 OGR_G_CreateFromGMLTree
       3181  C6C 00469ED0 OGR_G_CreateFromWkb
       3182  C6D 004679F0 OGR_G_CreateFromWkt
       3183  C6E 00467BE0 OGR_G_CreateGeometry
       3184  C6F 003A9920 OGR_G_CreateGeometryFromJson
       3185  C70 004508E0 OGR_G_Crosses
       3186  C71 00467C10 OGR_G_DestroyGeometry
       3187  C72 00450510 OGR_G_Difference
       3188  C73 00450740 OGR_G_Disjoint
       3189  C74 0044FE90 OGR_G_Distance
       3190  C75 0044EBF0 OGR_G_DumpReadable
       3191  C76 0044F5E0 OGR_G_Empty
       3192  C77 0044F270 OGR_G_Equal
       3193  C78 0044F200 OGR_G_Equals
       3194  C79 004863A0 OGR_G_ExportEnvelopeToGMLTree
       3195  C7A 00487380 OGR_G_ExportToGML
       3196  C7B 00487240 OGR_G_ExportToGMLEx
       3197  C7C 00487390 OGR_G_ExportToGMLTree
       3198  C7D 00412450 OGR_G_ExportToJson
       3199  C7E 00416F40 OGR_G_ExportToKML
       3200  C7F 0044F3B0 OGR_G_ExportToWkb
       3201  C80 0044F450 OGR_G_ExportToWkt
       3202  C81 0044FC60 OGR_G_FlattenTo2D
       3203  C82 004683E0 OGR_G_ForceToMultiLineString
       3204  C83 00468050 OGR_G_ForceToMultiPoint
       3205  C84 00467EE0 OGR_G_ForceToMultiPolygon
       3206  C85 00467D70 OGR_G_ForceToPolygon
       3207  C86 00440CF0 OGR_G_GetArea
       3208  C87 00450070 OGR_G_GetBoundary
       3209  C88 0044F140 OGR_G_GetCoordinateDimension
       3210  C89 0044F0E0 OGR_G_GetDimension
       3211  C8A 0044F310 OGR_G_GetEnvelope
       3212  C8B 00440710 OGR_G_GetGeometryCount
       3213  C8C 0044F4F0 OGR_G_GetGeometryName
       3214  C8D 004407A0 OGR_G_GetGeometryRef
       3215  C8E 0044F4A0 OGR_G_GetGeometryType
       3216  C8F 00440230 OGR_G_GetPoint
       3217  C90 0043FF50 OGR_G_GetPointCount
       3218  C91 0044F590 OGR_G_GetSpatialReference
       3219  C92 0043FFC0 OGR_G_GetX
       3220  C93 00440090 OGR_G_GetY
       3221  C94 00440160 OGR_G_GetZ
       3222  C95 0044F360 OGR_G_ImportFromWkb
       3223  C96 0044F400 OGR_G_ImportFromWkt
       3224  C97 0044EED0 OGR_G_Intersect
       3225  C98 00450250 OGR_G_Intersection
       3226  C99 0044EE60 OGR_G_Intersects
       3227  C9A 0044F630 OGR_G_IsEmpty
       3228  C9B 0044F810 OGR_G_IsRing
       3229  C9C 0044F770 OGR_G_IsSimple
       3230  C9D 0044F6D0 OGR_G_IsValid
       3231  C9E 00440B40 OGR_G_Length
       3232  C9F 00450B50 OGR_G_Overlaps
       3233  CA0 00440A80 OGR_G_RemoveGeometry
       3234  CA1 0044F070 OGR_G_Segmentize
       3235  CA2 0044F1A0 OGR_G_SetCoordinateDimension
       3236  CA3 00440360 OGR_G_SetPoint
       3237  CA4 00440460 OGR_G_SetPoint_2D
       3238  CA5 00450E40 OGR_G_Simplify
       3239  CA6 00450620 OGR_G_SymDifference
       3240  CA7 00450670 OGR_G_SymmetricDifference
       3241  CA8 00450810 OGR_G_Touches
       3242  CA9 0044F010 OGR_G_Transform
       3243  CAA 0044EFC0 OGR_G_TransformTo
       3244  CAB 00450350 OGR_G_Union
       3245  CAC 00450410 OGR_G_UnionCascaded
       3246  CAD 004509B0 OGR_G_Within
       3247  CAE 0044F2C0 OGR_G_WkbSize
       3248  CAF 004851E0 OGR_GetFieldTypeName
       3249  CB0 002F4630 OGR_L_CommitTransaction
       3250  CB1 002F4470 OGR_L_CreateFeature
       3251  CB2 002F4530 OGR_L_CreateField
       3252  CB3 002F4DD0 OGR_L_DeleteFeature
       3253  CB4 002F3D70 OGR_L_Dereference
       3254  CB5 002F4070 OGR_L_GetExtent
       3255  CB6 002F4E90 OGR_L_GetFIDColumn
       3256  CB7 002F4270 OGR_L_GetFeature
       3257  CB8 002F3EB0 OGR_L_GetFeatureCount
       3258  CB9 002F4E30 OGR_L_GetFeaturesRead
       3259  CBA 002F51C0 OGR_L_GetGeomType
       3260  CBB 002F4EF0 OGR_L_GetGeometryColumn
       3261  CBC 002F46E0 OGR_L_GetLayerDefn
       3262  CBD 002F5150 OGR_L_GetName
       3263  CBE 002F4380 OGR_L_GetNextFeature
       3264  CBF 002F3DD0 OGR_L_GetRefCount
       3265  CC0 002F4800 OGR_L_GetSpatialFilter
       3266  CC1 002F4730 OGR_L_GetSpatialRef
       3267  CC2 002F5010 OGR_L_GetStyleTable
       3268  CC3 002F3D10 OGR_L_Reference
       3269  CC4 002F4CB0 OGR_L_ResetReading
       3270  CC5 002F4690 OGR_L_RollbackTransaction
       3271  CC6 002F41C0 OGR_L_SetAttributeFilter
       3272  CC7 002F43E0 OGR_L_SetFeature
       3273  CC8 002F5300 OGR_L_SetIgnoredFields
       3274  CC9 002F4330 OGR_L_SetNextByIndex
       3275  CCA 002F4850 OGR_L_SetSpatialFilter
       3276  CCB 002F49B0 OGR_L_SetSpatialFilterRect
       3277  CCC 002F50B0 OGR_L_SetStyleTable
       3278  CCD 002F5060 OGR_L_SetStyleTableDirectly
       3279  CCE 002F45D0 OGR_L_StartTransaction
       3280  CCF 002F4D70 OGR_L_SyncToDisk
       3281  CD0 002F4780 OGR_L_TestCapability
       3282  CD1 0043D7F0 OGR_SM_AddPart
       3283  CD2 0043E350 OGR_SM_AddStyle
       3284  CD3 0043B260 OGR_SM_Create
       3285  CD4 0043C5D0 OGR_SM_Destroy
       3286  CD5 0043D2F0 OGR_SM_GetPart
       3287  CD6 0043B330 OGR_SM_GetPartCount
       3288  CD7 0043E2C0 OGR_SM_InitFromFeature
       3289  CD8 0043D590 OGR_SM_InitStyleString
       3290  CD9 0043D880 OGR_STBL_Create
       3291  CDA 0043E430 OGR_STBL_Destroy
       3292  CDB 0043C7A0 OGR_STBL_Find
       3293  CDC 0043D360 OGR_STBL_GetLastStyleName
       3294  CDD 0043EA90 OGR_STBL_GetNextStyle
       3295  CDE 0043B4A0 OGR_STBL_LoadStyleTable
       3296  CDF 0043B650 OGR_STBL_ResetStyleStringReading
       3297  CE0 0043B3E0 OGR_STBL_SaveStyleTable
       3298  CE1 0043C840 OGR_ST_Create
       3299  CE2 0043B700 OGR_ST_Destroy
       3300  CE3 0043CDE0 OGR_ST_GetParamDbl
       3301  CE4 0043D3B0 OGR_ST_GetParamNum
       3302  CE5 0043CCA0 OGR_ST_GetParamStr
       3303  CE6 0043BF30 OGR_ST_GetRGBFromString
       3304  CE7 0043BEB0 OGR_ST_GetStyleString
       3305  CE8 0043B870 OGR_ST_GetType
       3306  CE9 0043B8C0 OGR_ST_GetUnit
       3307  CEA 0043E570 OGR_ST_SetParamDbl
       3308  CEB 0043E490 OGR_ST_SetParamNum
       3309  CEC 0043CF30 OGR_ST_SetParamStr
       3310  CED 0043B920 OGR_ST_SetUnit
       3311  CEE 0043FE80 OPTGetParameterInfo
       3312  CEF 0043FDA0 OPTGetParameterList
       3313  CF0 0043FD00 OPTGetProjectionMethods
       3314  CF1 0046D030 OSRAutoIdentifyEPSG
       3315  CF2 00446FA0 OSRAxisEnumToName
       3316  CF3 00446D80 OSRCleanup
       3317  CF4 00447540 OSRClone
       3318  CF5 0044B760 OSRCloneGeogCS
       3319  CF6 004446F0 OSRCopyGeogCSFrom
       3320  CF7 00442C50 OSRDereference
       3321  CF8 00442AA0 OSRDestroySpatialReference
       3322  CF9 0046D110 OSREPSGTreatsAsLatLong
       3323  CFA 00470360 OSRExportToERM
       3324  CFB 0044C4C0 OSRExportToMICoordSys
       3325  CFC 0047B430 OSRExportToPCI
       3326  CFD 0047D6B0 OSRExportToPanorama
       3327  CFE 00447650 OSRExportToPrettyWkt
       3328  CFF 004768D0 OSRExportToProj4
       3329  D00 00471360 OSRExportToUSGS
       3330  D01 00442FC0 OSRExportToWkt
       3331  D02 0045E680 OSRExportToXML
       3332  D03 00446B00 OSRFixup
       3333  D04 004468D0 OSRFixupOrdering
       3334  D05 00443770 OSRGetAngularUnits
       3335  D06 00442F10 OSRGetAttrValue
       3336  D07 004455C0 OSRGetAuthorityCode
       3337  D08 00445690 OSRGetAuthorityName
       3338  D09 00446F50 OSRGetAxis
       3339  D0A 00444980 OSRGetInvFlattening
       3340  D0B 00443CD0 OSRGetLinearUnits
       3341  D0C 00447CC0 OSRGetNormProjParm
       3342  D0D 00443E30 OSRGetPrimeMeridian
       3343  D0E 00445370 OSRGetProjParm
       3344  D0F 00444850 OSRGetSemiMajor
       3345  D10 00444A70 OSRGetSemiMinor
       3346  D11 00446670 OSRGetTOWGS84
       3347  D12 0044B4A0 OSRGetUTMZone
       3348  D13 00487E40 OSRImportFromDict
       3349  D14 0046F900 OSRImportFromEPSG
       3350  D15 0046F860 OSRImportFromEPSGA
       3351  D16 00470310 OSRImportFromERM
       3352  D17 00463130 OSRImportFromESRI
       3353  D18 0044C550 OSRImportFromMICoordSys
       3354  D19 00463710 OSRImportFromOzi
       3355  D1A 0047C9C0 OSRImportFromPCI
       3356  D1B 0047DF40 OSRImportFromPanorama
       3357  D1C 00479CC0 OSRImportFromProj4
       3358  D1D 00472110 OSRImportFromUSGS
       3359  D1E 0044D570 OSRImportFromUrl
       3360  D1F 004430C0 OSRImportFromWkt
       3361  D20 0045F480 OSRImportFromXML
       3362  D21 00445C00 OSRIsGeographic
       3363  D22 00445C90 OSRIsLocal
       3364  D23 00445A40 OSRIsProjected
       3365  D24 0044C450 OSRIsSame
       3366  D25 0044C060 OSRIsSameGeogCS
       3367  D26 00445DF0 OSRIsVertical
       3368  D27 0045FFA0 OSRMorphFromESRI
       3369  D28 00461D60 OSRMorphToESRI
       3370  D29 004473D0 OSRNewSpatialReference
       3371  D2A 00442BC0 OSRReference
       3372  D2B 00442D30 OSRRelease
       3373  D2C 004484E0 OSRSetACEA
       3374  D2D 00448610 OSRSetAE
       3375  D2E 004435F0 OSRSetAngularUnits
       3376  D2F 004432F0 OSRSetAttrValue
       3377  D30 004454F0 OSRSetAuthority
       3378  D31 00448720 OSRSetBonne
       3379  D32 00448830 OSRSetCEA
       3380  D33 00448940 OSRSetCS
       3381  D34 00448A80 OSRSetEC
       3382  D35 00448C00 OSRSetEckert
       3383  D36 00448CF0 OSRSetEckertIV
       3384  D37 00448DD0 OSRSetEckertVI
       3385  D38 00448ED0 OSRSetEquirectangular
       3386  D39 00448FF0 OSRSetEquirectangular2
       3387  D3A 0044D3D0 OSRSetFromUserInput
       3388  D3B 004492D0 OSRSetGEOS
       3389  D3C 004491D0 OSRSetGH
       3390  D3D 004490F0 OSRSetGS
       3391  D3E 004493F0 OSRSetGaussSchreiberTMercator
       3392  D3F 00444400 OSRSetGeogCS
       3393  D40 004494D0 OSRSetGnomonic
       3394  D41 00449620 OSRSetHOM
       3395  D42 004497C0 OSRSetHOM2PNO
       3396  D43 00449920 OSRSetIWMPolyconic
       3397  D44 00449A80 OSRSetKrovak
       3398  D45 00449BC0 OSRSetLAEA
       3399  D46 00449D00 OSRSetLCC
       3400  D47 00449E40 OSRSetLCC1SP
       3401  D48 00449F90 OSRSetLCCB
       3402  D49 00443AE0 OSRSetLinearUnits
       3403  D4A 00447850 OSRSetLinearUnitsAndUpdateParameters
       3404  D4B 00444BB0 OSRSetLocalCS
       3405  D4C 0044A0C0 OSRSetMC
       3406  D4D 0044A1F0 OSRSetMercator
       3407  D4E 0044A430 OSRSetMollweide
       3408  D4F 0044A530 OSRSetNZMG
       3409  D50 00447DD0 OSRSetNormProjParm
       3410  D51 0044A650 OSRSetOS
       3411  D52 0044A770 OSRSetOrthographic
       3412  D53 0044A9A0 OSRSetPS
       3413  D54 0044A880 OSRSetPolyconic
       3414  D55 00444D30 OSRSetProjCS
       3415  D56 00445090 OSRSetProjParm
       3416  D57 00444E90 OSRSetProjection
       3417  D58 0044AAA0 OSRSetRobinson
       3418  D59 0044ADB0 OSRSetSOC
       3419  D5A 0044AB80 OSRSetSinusoidal
       3420  D5B 0046FC60 OSRSetStatePlane
       3421  D5C 0046FCC0 OSRSetStatePlaneWithUnits
       3422  D5D 0044AC90 OSRSetStereographic
       3423  D5E 00447EE0 OSRSetTM
       3424  D5F 004483A0 OSRSetTMG
       3425  D60 00448280 OSRSetTMSO
       3426  D61 00447FF0 OSRSetTMVariant
       3427  D62 004464E0 OSRSetTOWGS84
       3428  D63 0044B0E0 OSRSetUTM
       3429  D64 0044AEA0 OSRSetVDG
       3430  D65 00447B90 OSRSetWellKnownGeogCS
       3431  D66 00445840 OSRStripCTParms
       3432  D67 0043FC90 OSRValidate
       3433  D68 000740A0 ParseAlgorithmAndOptions
       3434  D69 00417A10 RECGetField
       3435  D6A 004179C0 RECGetFieldCount
       3436  D6B 00417B90 RECGetFieldDefinition
       3437  D6C 00417A80 RECReadRecord
       3438  D6D 00271A90 RPFTOCFree
       3439  D6E 00272BF0 RPFTOCRead
       3440  D6F 00271B80 RPFTOCReadFromBuffer
       3441  D70 002FF550 RegisterOGRAVCBin
       3442  D71 002FF390 RegisterOGRAVCE00
       3443  D72 002FD390 RegisterOGRAeronavFAA
       3444  D73 00302B60 RegisterOGRBNA
       3445  D74 00302380 RegisterOGRCSV
       3446  D75 00303310 RegisterOGRDGN
       3447  D76 002FF240 RegisterOGRDXF
       3448  D77 00302080 RegisterOGRGML
       3449  D78 00301670 RegisterOGRGMT
       3450  D79 002FDDE0 RegisterOGRGPSBabel
       3451  D7A 00301E60 RegisterOGRGPX
       3452  D7B 002FE920 RegisterOGRGTM
       3453  D7C 003019B0 RegisterOGRGeoJSON
       3454  D7D 002FEB50 RegisterOGRGeoRSS
       3455  D7E 002FF040 RegisterOGRGeoconcept
       3456  D7F 002FD4E0 RegisterOGRHTF
       3457  D80 00301C30 RegisterOGRKML
       3458  D81 00302CB0 RegisterOGRMEM
       3459  D82 002FFFE0 RegisterOGRMSSQLSpatial
       3460  D83 002FFB60 RegisterOGRMySQL
       3461  D84 003021D0 RegisterOGRNAS
       3462  D85 00303CD0 RegisterOGRNTF
       3463  D86 00300430 RegisterOGRODBC
       3464  D87 002FDA60 RegisterOGROpenAir
       3465  D88 002FF7F0 RegisterOGRPCIDSK
       3466  D89 002FD910 RegisterOGRPDS
       3467  D8A 002FFD80 RegisterOGRPG
       3468  D8B 002FDF50 RegisterOGRPGDump
       3469  D8C 003001B0 RegisterOGRPGeo
       3470  D8D 00302E20 RegisterOGRREC
       3471  D8E 003036D0 RegisterOGRS57
       3472  D8F 00303B30 RegisterOGRSDTS
       3473  D90 00300610 RegisterOGRSQLite
       3474  D91 002FDBB0 RegisterOGRSUA
       3475  D92 00304590 RegisterOGRShape
       3476  D93 003040C0 RegisterOGRTAB
       3477  D94 003039B0 RegisterOGRTiger
       3478  D95 002FE160 RegisterOGRVFK
       3479  D96 00303100 RegisterOGRVRT
       3480  D97 002FD7C0 RegisterOGRWFS
       3481  D98 002FF690 RegisterOGRXPlane
       3482  D99 00344070 SASetupDefaultHooks
       3483  D9A 004327B0 SHPCheckBoundsOverlap
       3484  D9B 003E52F0 SHPClose
       3485  D9C 003E5820 SHPComputeExtents
       3486  D9D 003E77C0 SHPCreate
       3487  D9E 003E5410 SHPCreateLL
       3488  D9F 003E59B0 SHPCreateObject
       3489  DA0 003E5E90 SHPCreateSimpleObject
       3490  DA1 00433DC0 SHPCreateTree
       3491  DA2 003E6FB0 SHPDestroyObject
       3492  DA3 00432780 SHPDestroyTree
       3493  DA4 003E5360 SHPGetInfo
       3494  DA5 003E7780 SHPOpen
       3495  DA6 003E4A40 SHPOpenLL
       3496  DA7 003E6F30 SHPPartTypeName
       3497  DA8 003E7800 SHPReadObject
       3498  DA9 003E7030 SHPRewindObject
       3499  DAA 004339F0 SHPSearchDiskTree
       3500  DAB 004332C0 SHPTreeAddShapeId
       3501  DAC 004332E0 SHPTreeCollectShapeIds
       3502  DAD 00433450 SHPTreeFindLikelyShapes
       3503  DAE 004328A0 SHPTreeSplitBounds
       3504  DAF 004335F0 SHPTreeTrimExtraNodes
       3505  DB0 003E6E10 SHPTypeName
       3506  DB1 003E4590 SHPWriteHeader
       3507  DB2 003E5EE0 SHPWriteObject
       3508  DB3 00433CD0 SHPWriteTree
       3509  DB4 00131450 ST_Create
       3510  DB5 00131470 ST_Destroy
       3511  DB6 00131660 ST_GetKey
       3512  DB7 001314E0 ST_SetKey
       3513  DB8 001313E0 ST_TagType
       3514  DB9 00008DA0 SetCSVFilenameHook
       3515  DBA 002DA5A0 VRTAddBand
       3516  DBB 002E1240 VRTAddComplexSource
       3517  DBC 002E13D0 VRTAddFuncSource
       3518  DBD 002E0FB0 VRTAddSimpleSource
       3519  DBE 002D9610 VRTCreate
       3520  DBF 002D97C0 VRTFlushCache
       3521  DC0 002D9C30 VRTSerializeToXML
       3522  DC1 0002C2F0 VSICTime
       3523  DC2 0002BF80 VSICalloc
       3524  DC3 0001CA30 VSICleanupFileManager
       3525  DC4 0002BDC0 VSIFClose
       3526  DC5 0001C4F0 VSIFCloseL
       3527  DC6 0002BF50 VSIFEof
       3528  DC7 0001C5C0 VSIFEofL
       3529  DC8 0002BEE0 VSIFFlush
       3530  DC9 0001C570 VSIFFlushL
       3531  DCA 0002BF00 VSIFGetc
       3532  DCB 0002BEF0 VSIFGets
       3533  DCC 0002C3F0 VSIFOpen
       3534  DCD 0001CC80 VSIFOpenL
       3535  DCE 0002BF20 VSIFPrintf
       3536  DCF 0001C600 VSIFPrintfL
       3537  DD0 0002BF70 VSIFPutc
       3538  DD1 0001C5D0 VSIFPutcL
       3539  DD2 0002BF60 VSIFPuts
       3540  DD3 0002BE60 VSIFRead
       3541  DD4 0001C580 VSIFReadL
       3542  DD5 0002BDD0 VSIFSeek
       3543  DD6 0001C530 VSIFSeekL
       3544  DD7 0002BE10 VSIFTell
       3545  DD8 0001C540 VSIFTellL
       3546  DD9 0002BEA0 VSIFWrite
       3547  DDA 0001C5A0 VSIFWriteL
       3548  DDB 0002E270 VSIFileFromMemBuffer
       3549  DDC 0002BFB0 VSIFree
       3550  DDD 0002C320 VSIGMTime
       3551  DDE 0002DD80 VSIGetMemFileBuffer
       3552  DDF 0002BCD0 VSIInstallLargeFileHandler
       3553  DE0 0002E1C0 VSIInstallMemFileHandler
       3554  DE1 00028790 VSIInstallSparseFileHandler
       3555  DE2 0002A0B0 VSIInstallSubFileHandler
       3556  DE3 0001CC50 VSIIsCaseSensitiveFS
       3557  DE4 0002C380 VSILocalTime
       3558  DE5 0002BF90 VSIMalloc
       3559  DE6 0002C130 VSIMalloc2
       3560  DE7 0002C1C0 VSIMalloc3
       3561  DE8 0001CAD0 VSIMkdir
       3562  DE9 0001CA70 VSIReadDir
       3563  DEA 0002BFA0 VSIRealloc
       3564  DEB 0001CB40 VSIRename
       3565  DEC 0002BE50 VSIRewind
       3566  DED 0001C550 VSIRewindL
       3567  DEE 0001CB80 VSIRmdir
       3568  DEF 0002C230 VSIStat
       3569  DF0 0001CBB0 VSIStatExL
       3570  DF1 0001CCC0 VSIStatL
       3571  DF2 0002BFD0 VSIStrdup
       3572  DF3 0002C3E0 VSIStrerror
       3573  DF4 0002C2C0 VSITime
       3574  DF5 0002BF10 VSIUngetc
       3575  DF6 0001CB10 VSIUnlink
       3576  DF7 002F0820 XTIFFClientOpen
       3577  DF8 002F08E0 XTIFFClose
       3578  DF9 002F07C0 XTIFFFdOpen
       3579  DFA 002F0720 XTIFFInitialize
       3580  DFB 002F0760 XTIFFOpen
       3581  DFC 0000A350 _CPLAssert
       3582  DFD 00131990 _GTIFFree
       3583  DFE 00131B90 _GTIFSetDefaultTIFF
       3584  DFF 00131930 _GTIFcalloc
       3585  E00 00131980 _GTIFmemcpy
       3586  E01 00131970 _GTIFrealloc

  Summary

      101000 .data
       40000 .pdata
      291000 .rdata
       25000 .reloc
        1000 .rsrc
      589000 .text
